
Driver_Atmega32.elf:     file format elf32-avr

Sections:
Idx Name          Size      VMA       LMA       File off  Algn
  0 .text         00002928  00000000  00000000  00000094  2**1
                  CONTENTS, ALLOC, LOAD, READONLY, CODE
  1 .data         00000044  00800060  00002928  000029bc  2**0
                  CONTENTS, ALLOC, LOAD, DATA
  2 .bss          0000000b  008000a4  008000a4  00002a00  2**0
                  ALLOC
  3 .stab         00005af0  00000000  00000000  00002a00  2**2
                  CONTENTS, READONLY, DEBUGGING
  4 .stabstr      00004258  00000000  00000000  000084f0  2**0
                  CONTENTS, READONLY, DEBUGGING
  5 .comment      00000011  00000000  00000000  0000c748  2**0
                  CONTENTS, READONLY
  6 .note.gnu.avr.deviceinfo 0000003c  00000000  00000000  0000c75c  2**2
                  CONTENTS, READONLY
  7 .avr.prop     00000016  00000000  00000000  0000c798  2**0
                  CONTENTS, READONLY
  8 .debug_info   0000052e  00000000  00000000  0000c7ae  2**0
                  CONTENTS, READONLY, DEBUGGING
  9 .debug_abbrev 000004e7  00000000  00000000  0000ccdc  2**0
                  CONTENTS, READONLY, DEBUGGING
 10 .debug_line   0000001a  00000000  00000000  0000d1c3  2**0
                  CONTENTS, READONLY, DEBUGGING
 11 .debug_str    000001af  00000000  00000000  0000d1dd  2**0
                  CONTENTS, READONLY, DEBUGGING

Disassembly of section .text:

00000000 <__vectors>:
       0:	0c 94 2a 00 	jmp	0x54	; 0x54 <__ctors_end>
       4:	0c 94 47 00 	jmp	0x8e	; 0x8e <__bad_interrupt>
       8:	0c 94 47 00 	jmp	0x8e	; 0x8e <__bad_interrupt>
       c:	0c 94 47 00 	jmp	0x8e	; 0x8e <__bad_interrupt>
      10:	0c 94 47 00 	jmp	0x8e	; 0x8e <__bad_interrupt>
      14:	0c 94 47 00 	jmp	0x8e	; 0x8e <__bad_interrupt>
      18:	0c 94 47 00 	jmp	0x8e	; 0x8e <__bad_interrupt>
      1c:	0c 94 47 00 	jmp	0x8e	; 0x8e <__bad_interrupt>
      20:	0c 94 47 00 	jmp	0x8e	; 0x8e <__bad_interrupt>
      24:	0c 94 47 00 	jmp	0x8e	; 0x8e <__bad_interrupt>
      28:	0c 94 47 00 	jmp	0x8e	; 0x8e <__bad_interrupt>
      2c:	0c 94 47 00 	jmp	0x8e	; 0x8e <__bad_interrupt>
      30:	0c 94 47 00 	jmp	0x8e	; 0x8e <__bad_interrupt>
      34:	0c 94 47 00 	jmp	0x8e	; 0x8e <__bad_interrupt>
      38:	0c 94 47 00 	jmp	0x8e	; 0x8e <__bad_interrupt>
      3c:	0c 94 47 00 	jmp	0x8e	; 0x8e <__bad_interrupt>
      40:	0c 94 47 00 	jmp	0x8e	; 0x8e <__bad_interrupt>
      44:	0c 94 47 00 	jmp	0x8e	; 0x8e <__bad_interrupt>
      48:	0c 94 47 00 	jmp	0x8e	; 0x8e <__bad_interrupt>
      4c:	0c 94 47 00 	jmp	0x8e	; 0x8e <__bad_interrupt>
      50:	0c 94 47 00 	jmp	0x8e	; 0x8e <__bad_interrupt>

00000054 <__ctors_end>:
      54:	11 24       	eor	r1, r1
      56:	1f be       	out	0x3f, r1	; 63
      58:	cf e5       	ldi	r28, 0x5F	; 95
      5a:	d4 e0       	ldi	r29, 0x04	; 4
      5c:	de bf       	out	0x3e, r29	; 62
      5e:	cd bf       	out	0x3d, r28	; 61

00000060 <__do_copy_data>:
      60:	10 e0       	ldi	r17, 0x00	; 0
      62:	a0 e6       	ldi	r26, 0x60	; 96
      64:	b0 e0       	ldi	r27, 0x00	; 0
      66:	e8 e2       	ldi	r30, 0x28	; 40
      68:	f9 e2       	ldi	r31, 0x29	; 41
      6a:	02 c0       	rjmp	.+4      	; 0x70 <__do_copy_data+0x10>
      6c:	05 90       	lpm	r0, Z+
      6e:	0d 92       	st	X+, r0
      70:	a4 3a       	cpi	r26, 0xA4	; 164
      72:	b1 07       	cpc	r27, r17
      74:	d9 f7       	brne	.-10     	; 0x6c <__do_copy_data+0xc>

00000076 <__do_clear_bss>:
      76:	20 e0       	ldi	r18, 0x00	; 0
      78:	a4 ea       	ldi	r26, 0xA4	; 164
      7a:	b0 e0       	ldi	r27, 0x00	; 0
      7c:	01 c0       	rjmp	.+2      	; 0x80 <.do_clear_bss_start>

0000007e <.do_clear_bss_loop>:
      7e:	1d 92       	st	X+, r1

00000080 <.do_clear_bss_start>:
      80:	af 3a       	cpi	r26, 0xAF	; 175
      82:	b2 07       	cpc	r27, r18
      84:	e1 f7       	brne	.-8      	; 0x7e <.do_clear_bss_loop>
      86:	0e 94 17 10 	call	0x202e	; 0x202e <main>
      8a:	0c 94 92 14 	jmp	0x2924	; 0x2924 <_exit>

0000008e <__bad_interrupt>:
      8e:	0c 94 00 00 	jmp	0	; 0x0 <__vectors>

00000092 <EXI_Init>:
      92:	cf 93       	push	r28
      94:	df 93       	push	r29
      96:	00 d0       	rcall	.+0      	; 0x98 <EXI_Init+0x6>
      98:	cd b7       	in	r28, 0x3d	; 61
      9a:	de b7       	in	r29, 0x3e	; 62
      9c:	89 83       	std	Y+1, r24	; 0x01
      9e:	6a 83       	std	Y+2, r22	; 0x02
      a0:	89 81       	ldd	r24, Y+1	; 0x01
      a2:	88 2f       	mov	r24, r24
      a4:	90 e0       	ldi	r25, 0x00	; 0
      a6:	81 30       	cpi	r24, 0x01	; 1
      a8:	91 05       	cpc	r25, r1
      aa:	01 f1       	breq	.+64     	; 0xec <EXI_Init+0x5a>
      ac:	82 30       	cpi	r24, 0x02	; 2
      ae:	91 05       	cpc	r25, r1
      b0:	b9 f1       	breq	.+110    	; 0x120 <EXI_Init+0x8e>
      b2:	89 2b       	or	r24, r25
      b4:	09 f0       	breq	.+2      	; 0xb8 <EXI_Init+0x26>
      b6:	4e c0       	rjmp	.+156    	; 0x154 <EXI_Init+0xc2>
      b8:	8f e5       	ldi	r24, 0x5F	; 95
      ba:	90 e0       	ldi	r25, 0x00	; 0
      bc:	fc 01       	movw	r30, r24
      be:	20 81       	ld	r18, Z
      c0:	8f e5       	ldi	r24, 0x5F	; 95
      c2:	90 e0       	ldi	r25, 0x00	; 0
      c4:	20 68       	ori	r18, 0x80	; 128
      c6:	fc 01       	movw	r30, r24
      c8:	20 83       	st	Z, r18
      ca:	8b e5       	ldi	r24, 0x5B	; 91
      cc:	90 e0       	ldi	r25, 0x00	; 0
      ce:	fc 01       	movw	r30, r24
      d0:	20 81       	ld	r18, Z
      d2:	8b e5       	ldi	r24, 0x5B	; 91
      d4:	90 e0       	ldi	r25, 0x00	; 0
      d6:	20 64       	ori	r18, 0x40	; 64
      d8:	fc 01       	movw	r30, r24
      da:	20 83       	st	Z, r18
      dc:	8a 81       	ldd	r24, Y+2	; 0x02
      de:	0e 94 b0 00 	call	0x160	; 0x160 <EX_ControlIN0>
      e2:	60 e0       	ldi	r22, 0x00	; 0
      e4:	8a e1       	ldi	r24, 0x1A	; 26
      e6:	0e 94 b4 01 	call	0x368	; 0x368 <Dio_setPinDir>
      ea:	34 c0       	rjmp	.+104    	; 0x154 <EXI_Init+0xc2>
      ec:	8f e5       	ldi	r24, 0x5F	; 95
      ee:	90 e0       	ldi	r25, 0x00	; 0
      f0:	fc 01       	movw	r30, r24
      f2:	20 81       	ld	r18, Z
      f4:	8f e5       	ldi	r24, 0x5F	; 95
      f6:	90 e0       	ldi	r25, 0x00	; 0
      f8:	20 68       	ori	r18, 0x80	; 128
      fa:	fc 01       	movw	r30, r24
      fc:	20 83       	st	Z, r18
      fe:	8b e5       	ldi	r24, 0x5B	; 91
     100:	90 e0       	ldi	r25, 0x00	; 0
     102:	fc 01       	movw	r30, r24
     104:	20 81       	ld	r18, Z
     106:	8b e5       	ldi	r24, 0x5B	; 91
     108:	90 e0       	ldi	r25, 0x00	; 0
     10a:	20 68       	ori	r18, 0x80	; 128
     10c:	fc 01       	movw	r30, r24
     10e:	20 83       	st	Z, r18
     110:	8a 81       	ldd	r24, Y+2	; 0x02
     112:	0e 94 19 01 	call	0x232	; 0x232 <EX_ControlIN1>
     116:	60 e0       	ldi	r22, 0x00	; 0
     118:	8b e1       	ldi	r24, 0x1B	; 27
     11a:	0e 94 b4 01 	call	0x368	; 0x368 <Dio_setPinDir>
     11e:	1a c0       	rjmp	.+52     	; 0x154 <EXI_Init+0xc2>
     120:	8f e5       	ldi	r24, 0x5F	; 95
     122:	90 e0       	ldi	r25, 0x00	; 0
     124:	fc 01       	movw	r30, r24
     126:	20 81       	ld	r18, Z
     128:	8f e5       	ldi	r24, 0x5F	; 95
     12a:	90 e0       	ldi	r25, 0x00	; 0
     12c:	20 68       	ori	r18, 0x80	; 128
     12e:	fc 01       	movw	r30, r24
     130:	20 83       	st	Z, r18
     132:	8b e5       	ldi	r24, 0x5B	; 91
     134:	90 e0       	ldi	r25, 0x00	; 0
     136:	fc 01       	movw	r30, r24
     138:	20 81       	ld	r18, Z
     13a:	8b e5       	ldi	r24, 0x5B	; 91
     13c:	90 e0       	ldi	r25, 0x00	; 0
     13e:	20 62       	ori	r18, 0x20	; 32
     140:	fc 01       	movw	r30, r24
     142:	20 83       	st	Z, r18
     144:	8a 81       	ldd	r24, Y+2	; 0x02
     146:	0e 94 82 01 	call	0x304	; 0x304 <EX_ControlIN2>
     14a:	60 e0       	ldi	r22, 0x00	; 0
     14c:	8b e0       	ldi	r24, 0x0B	; 11
     14e:	0e 94 b4 01 	call	0x368	; 0x368 <Dio_setPinDir>
     152:	00 00       	nop
     154:	00 00       	nop
     156:	0f 90       	pop	r0
     158:	0f 90       	pop	r0
     15a:	df 91       	pop	r29
     15c:	cf 91       	pop	r28
     15e:	08 95       	ret

00000160 <EX_ControlIN0>:
/**
  * @brief  : Static Function Control Direction of External Interrupt {0}
  * @param  : CopyDirIn
  */
static void EX_ControlIN0(EX_Interrupt_Dir CopyDirIn)
{
     160:	cf 93       	push	r28
     162:	df 93       	push	r29
     164:	1f 92       	push	r1
     166:	cd b7       	in	r28, 0x3d	; 61
     168:	de b7       	in	r29, 0x3e	; 62
     16a:	89 83       	std	Y+1, r24	; 0x01
	switch (CopyDirIn) {
     16c:	89 81       	ldd	r24, Y+1	; 0x01
     16e:	88 2f       	mov	r24, r24
     170:	90 e0       	ldi	r25, 0x00	; 0
     172:	81 30       	cpi	r24, 0x01	; 1
     174:	91 05       	cpc	r25, r1
     176:	f9 f0       	breq	.+62     	; 0x1b6 <EX_ControlIN0+0x56>
     178:	82 30       	cpi	r24, 0x02	; 2
     17a:	91 05       	cpc	r25, r1
     17c:	1c f4       	brge	.+6      	; 0x184 <EX_ControlIN0+0x24>
     17e:	89 2b       	or	r24, r25
     180:	39 f0       	breq	.+14     	; 0x190 <EX_ControlIN0+0x30>
		case RISING_AGE:
			SET_BIT(MCUCR , MCUCR_ISC11);
			SET_BIT(MCUCR , MCUCR_ISC10);
			break;
	}
}
     182:	52 c0       	rjmp	.+164    	; 0x228 <__EEPROM_REGION_LENGTH__+0x28>
  * @brief  : Static Function Control Direction of External Interrupt {0}
  * @param  : CopyDirIn
  */
static void EX_ControlIN0(EX_Interrupt_Dir CopyDirIn)
{
	switch (CopyDirIn) {
     184:	82 30       	cpi	r24, 0x02	; 2
     186:	91 05       	cpc	r25, r1
     188:	49 f1       	breq	.+82     	; 0x1dc <EX_ControlIN0+0x7c>
     18a:	03 97       	sbiw	r24, 0x03	; 3
     18c:	d1 f1       	breq	.+116    	; 0x202 <__EEPROM_REGION_LENGTH__+0x2>
		case RISING_AGE:
			SET_BIT(MCUCR , MCUCR_ISC11);
			SET_BIT(MCUCR , MCUCR_ISC10);
			break;
	}
}
     18e:	4c c0       	rjmp	.+152    	; 0x228 <__EEPROM_REGION_LENGTH__+0x28>
  */
static void EX_ControlIN0(EX_Interrupt_Dir CopyDirIn)
{
	switch (CopyDirIn) {
		case LOW_LEVEL:
			CLR_BIT(MCUCR , MCUCR_ISC11);
     190:	85 e5       	ldi	r24, 0x55	; 85
     192:	90 e0       	ldi	r25, 0x00	; 0
     194:	fc 01       	movw	r30, r24
     196:	20 81       	ld	r18, Z
     198:	85 e5       	ldi	r24, 0x55	; 85
     19a:	90 e0       	ldi	r25, 0x00	; 0
     19c:	27 7f       	andi	r18, 0xF7	; 247
     19e:	fc 01       	movw	r30, r24
     1a0:	20 83       	st	Z, r18
			CLR_BIT(MCUCR , MCUCR_ISC10);
     1a2:	85 e5       	ldi	r24, 0x55	; 85
     1a4:	90 e0       	ldi	r25, 0x00	; 0
     1a6:	fc 01       	movw	r30, r24
     1a8:	20 81       	ld	r18, Z
     1aa:	85 e5       	ldi	r24, 0x55	; 85
     1ac:	90 e0       	ldi	r25, 0x00	; 0
     1ae:	2b 7f       	andi	r18, 0xFB	; 251
     1b0:	fc 01       	movw	r30, r24
     1b2:	20 83       	st	Z, r18
			break;
     1b4:	39 c0       	rjmp	.+114    	; 0x228 <__EEPROM_REGION_LENGTH__+0x28>
		case ANY_LOGIC:
			CLR_BIT(MCUCR , MCUCR_ISC11);
     1b6:	85 e5       	ldi	r24, 0x55	; 85
     1b8:	90 e0       	ldi	r25, 0x00	; 0
     1ba:	fc 01       	movw	r30, r24
     1bc:	20 81       	ld	r18, Z
     1be:	85 e5       	ldi	r24, 0x55	; 85
     1c0:	90 e0       	ldi	r25, 0x00	; 0
     1c2:	27 7f       	andi	r18, 0xF7	; 247
     1c4:	fc 01       	movw	r30, r24
     1c6:	20 83       	st	Z, r18
			SET_BIT(MCUCR , MCUCR_ISC10);
     1c8:	85 e5       	ldi	r24, 0x55	; 85
     1ca:	90 e0       	ldi	r25, 0x00	; 0
     1cc:	fc 01       	movw	r30, r24
     1ce:	20 81       	ld	r18, Z
     1d0:	85 e5       	ldi	r24, 0x55	; 85
     1d2:	90 e0       	ldi	r25, 0x00	; 0
     1d4:	24 60       	ori	r18, 0x04	; 4
     1d6:	fc 01       	movw	r30, r24
     1d8:	20 83       	st	Z, r18
			break;
     1da:	26 c0       	rjmp	.+76     	; 0x228 <__EEPROM_REGION_LENGTH__+0x28>
		case FALLING_EDGE:
			SET_BIT(MCUCR , MCUCR_ISC11);
     1dc:	85 e5       	ldi	r24, 0x55	; 85
     1de:	90 e0       	ldi	r25, 0x00	; 0
     1e0:	fc 01       	movw	r30, r24
     1e2:	20 81       	ld	r18, Z
     1e4:	85 e5       	ldi	r24, 0x55	; 85
     1e6:	90 e0       	ldi	r25, 0x00	; 0
     1e8:	28 60       	ori	r18, 0x08	; 8
     1ea:	fc 01       	movw	r30, r24
     1ec:	20 83       	st	Z, r18
			CLR_BIT(MCUCR , MCUCR_ISC10);
     1ee:	85 e5       	ldi	r24, 0x55	; 85
     1f0:	90 e0       	ldi	r25, 0x00	; 0
     1f2:	fc 01       	movw	r30, r24
     1f4:	20 81       	ld	r18, Z
     1f6:	85 e5       	ldi	r24, 0x55	; 85
     1f8:	90 e0       	ldi	r25, 0x00	; 0
     1fa:	2b 7f       	andi	r18, 0xFB	; 251
     1fc:	fc 01       	movw	r30, r24
     1fe:	20 83       	st	Z, r18
			break;
     200:	13 c0       	rjmp	.+38     	; 0x228 <__EEPROM_REGION_LENGTH__+0x28>
		case RISING_AGE:
			SET_BIT(MCUCR , MCUCR_ISC11);
     202:	85 e5       	ldi	r24, 0x55	; 85
     204:	90 e0       	ldi	r25, 0x00	; 0
     206:	fc 01       	movw	r30, r24
     208:	20 81       	ld	r18, Z
     20a:	85 e5       	ldi	r24, 0x55	; 85
     20c:	90 e0       	ldi	r25, 0x00	; 0
     20e:	28 60       	ori	r18, 0x08	; 8
     210:	fc 01       	movw	r30, r24
     212:	20 83       	st	Z, r18
			SET_BIT(MCUCR , MCUCR_ISC10);
     214:	85 e5       	ldi	r24, 0x55	; 85
     216:	90 e0       	ldi	r25, 0x00	; 0
     218:	fc 01       	movw	r30, r24
     21a:	20 81       	ld	r18, Z
     21c:	85 e5       	ldi	r24, 0x55	; 85
     21e:	90 e0       	ldi	r25, 0x00	; 0
     220:	24 60       	ori	r18, 0x04	; 4
     222:	fc 01       	movw	r30, r24
     224:	20 83       	st	Z, r18
			break;
     226:	00 00       	nop
	}
}
     228:	00 00       	nop
     22a:	0f 90       	pop	r0
     22c:	df 91       	pop	r29
     22e:	cf 91       	pop	r28
     230:	08 95       	ret

00000232 <EX_ControlIN1>:
/**
  * @brief  : Static Function Control Direction of External Interrupt {1}
  * @param  : CopyDirIn
  */
static void EX_ControlIN1(EX_Interrupt_Dir CopyDirIn)
{
     232:	cf 93       	push	r28
     234:	df 93       	push	r29
     236:	1f 92       	push	r1
     238:	cd b7       	in	r28, 0x3d	; 61
     23a:	de b7       	in	r29, 0x3e	; 62
     23c:	89 83       	std	Y+1, r24	; 0x01
	switch (CopyDirIn)
     23e:	89 81       	ldd	r24, Y+1	; 0x01
     240:	88 2f       	mov	r24, r24
     242:	90 e0       	ldi	r25, 0x00	; 0
     244:	81 30       	cpi	r24, 0x01	; 1
     246:	91 05       	cpc	r25, r1
     248:	f9 f0       	breq	.+62     	; 0x288 <EX_ControlIN1+0x56>
     24a:	82 30       	cpi	r24, 0x02	; 2
     24c:	91 05       	cpc	r25, r1
     24e:	1c f4       	brge	.+6      	; 0x256 <EX_ControlIN1+0x24>
     250:	89 2b       	or	r24, r25
     252:	39 f0       	breq	.+14     	; 0x262 <EX_ControlIN1+0x30>
			case RISING_AGE:
				SET_BIT(MCUCR , MCUCR_ISC01);
				SET_BIT(MCUCR , MCUCR_ISC00);
				break;
		}
}
     254:	52 c0       	rjmp	.+164    	; 0x2fa <EX_ControlIN1+0xc8>
  * @brief  : Static Function Control Direction of External Interrupt {1}
  * @param  : CopyDirIn
  */
static void EX_ControlIN1(EX_Interrupt_Dir CopyDirIn)
{
	switch (CopyDirIn)
     256:	82 30       	cpi	r24, 0x02	; 2
     258:	91 05       	cpc	r25, r1
     25a:	49 f1       	breq	.+82     	; 0x2ae <EX_ControlIN1+0x7c>
     25c:	03 97       	sbiw	r24, 0x03	; 3
     25e:	d1 f1       	breq	.+116    	; 0x2d4 <EX_ControlIN1+0xa2>
			case RISING_AGE:
				SET_BIT(MCUCR , MCUCR_ISC01);
				SET_BIT(MCUCR , MCUCR_ISC00);
				break;
		}
}
     260:	4c c0       	rjmp	.+152    	; 0x2fa <EX_ControlIN1+0xc8>
static void EX_ControlIN1(EX_Interrupt_Dir CopyDirIn)
{
	switch (CopyDirIn)
	{
			case LOW_LEVEL:
				CLR_BIT(MCUCR , MCUCR_ISC01);
     262:	85 e5       	ldi	r24, 0x55	; 85
     264:	90 e0       	ldi	r25, 0x00	; 0
     266:	fc 01       	movw	r30, r24
     268:	20 81       	ld	r18, Z
     26a:	85 e5       	ldi	r24, 0x55	; 85
     26c:	90 e0       	ldi	r25, 0x00	; 0
     26e:	2d 7f       	andi	r18, 0xFD	; 253
     270:	fc 01       	movw	r30, r24
     272:	20 83       	st	Z, r18
				CLR_BIT(MCUCR , MCUCR_ISC00);
     274:	85 e5       	ldi	r24, 0x55	; 85
     276:	90 e0       	ldi	r25, 0x00	; 0
     278:	fc 01       	movw	r30, r24
     27a:	20 81       	ld	r18, Z
     27c:	85 e5       	ldi	r24, 0x55	; 85
     27e:	90 e0       	ldi	r25, 0x00	; 0
     280:	2e 7f       	andi	r18, 0xFE	; 254
     282:	fc 01       	movw	r30, r24
     284:	20 83       	st	Z, r18
				break;
     286:	39 c0       	rjmp	.+114    	; 0x2fa <EX_ControlIN1+0xc8>
			case ANY_LOGIC:
				CLR_BIT(MCUCR , MCUCR_ISC01);
     288:	85 e5       	ldi	r24, 0x55	; 85
     28a:	90 e0       	ldi	r25, 0x00	; 0
     28c:	fc 01       	movw	r30, r24
     28e:	20 81       	ld	r18, Z
     290:	85 e5       	ldi	r24, 0x55	; 85
     292:	90 e0       	ldi	r25, 0x00	; 0
     294:	2d 7f       	andi	r18, 0xFD	; 253
     296:	fc 01       	movw	r30, r24
     298:	20 83       	st	Z, r18
				SET_BIT(MCUCR , MCUCR_ISC00);
     29a:	85 e5       	ldi	r24, 0x55	; 85
     29c:	90 e0       	ldi	r25, 0x00	; 0
     29e:	fc 01       	movw	r30, r24
     2a0:	20 81       	ld	r18, Z
     2a2:	85 e5       	ldi	r24, 0x55	; 85
     2a4:	90 e0       	ldi	r25, 0x00	; 0
     2a6:	21 60       	ori	r18, 0x01	; 1
     2a8:	fc 01       	movw	r30, r24
     2aa:	20 83       	st	Z, r18
				break;
     2ac:	26 c0       	rjmp	.+76     	; 0x2fa <EX_ControlIN1+0xc8>
			case FALLING_EDGE:
				SET_BIT(MCUCR , MCUCR_ISC01);
     2ae:	85 e5       	ldi	r24, 0x55	; 85
     2b0:	90 e0       	ldi	r25, 0x00	; 0
     2b2:	fc 01       	movw	r30, r24
     2b4:	20 81       	ld	r18, Z
     2b6:	85 e5       	ldi	r24, 0x55	; 85
     2b8:	90 e0       	ldi	r25, 0x00	; 0
     2ba:	22 60       	ori	r18, 0x02	; 2
     2bc:	fc 01       	movw	r30, r24
     2be:	20 83       	st	Z, r18
				CLR_BIT(MCUCR , MCUCR_ISC00);
     2c0:	85 e5       	ldi	r24, 0x55	; 85
     2c2:	90 e0       	ldi	r25, 0x00	; 0
     2c4:	fc 01       	movw	r30, r24
     2c6:	20 81       	ld	r18, Z
     2c8:	85 e5       	ldi	r24, 0x55	; 85
     2ca:	90 e0       	ldi	r25, 0x00	; 0
     2cc:	2e 7f       	andi	r18, 0xFE	; 254
     2ce:	fc 01       	movw	r30, r24
     2d0:	20 83       	st	Z, r18
				break;
     2d2:	13 c0       	rjmp	.+38     	; 0x2fa <EX_ControlIN1+0xc8>
			case RISING_AGE:
				SET_BIT(MCUCR , MCUCR_ISC01);
     2d4:	85 e5       	ldi	r24, 0x55	; 85
     2d6:	90 e0       	ldi	r25, 0x00	; 0
     2d8:	fc 01       	movw	r30, r24
     2da:	20 81       	ld	r18, Z
     2dc:	85 e5       	ldi	r24, 0x55	; 85
     2de:	90 e0       	ldi	r25, 0x00	; 0
     2e0:	22 60       	ori	r18, 0x02	; 2
     2e2:	fc 01       	movw	r30, r24
     2e4:	20 83       	st	Z, r18
				SET_BIT(MCUCR , MCUCR_ISC00);
     2e6:	85 e5       	ldi	r24, 0x55	; 85
     2e8:	90 e0       	ldi	r25, 0x00	; 0
     2ea:	fc 01       	movw	r30, r24
     2ec:	20 81       	ld	r18, Z
     2ee:	85 e5       	ldi	r24, 0x55	; 85
     2f0:	90 e0       	ldi	r25, 0x00	; 0
     2f2:	21 60       	ori	r18, 0x01	; 1
     2f4:	fc 01       	movw	r30, r24
     2f6:	20 83       	st	Z, r18
				break;
     2f8:	00 00       	nop
		}
}
     2fa:	00 00       	nop
     2fc:	0f 90       	pop	r0
     2fe:	df 91       	pop	r29
     300:	cf 91       	pop	r28
     302:	08 95       	ret

00000304 <EX_ControlIN2>:
/**
  * @brief  : Static Function Control Direction of External Interrupt {2}
  * @param  : CopyDirIn
  */
static void EX_ControlIN2(EX_Interrupt_Dir CopyDirIn)
{
     304:	cf 93       	push	r28
     306:	df 93       	push	r29
     308:	1f 92       	push	r1
     30a:	cd b7       	in	r28, 0x3d	; 61
     30c:	de b7       	in	r29, 0x3e	; 62
     30e:	89 83       	std	Y+1, r24	; 0x01
	switch (CopyDirIn)
     310:	89 81       	ldd	r24, Y+1	; 0x01
     312:	88 2f       	mov	r24, r24
     314:	90 e0       	ldi	r25, 0x00	; 0
     316:	82 30       	cpi	r24, 0x02	; 2
     318:	91 05       	cpc	r25, r1
     31a:	19 f0       	breq	.+6      	; 0x322 <EX_ControlIN2+0x1e>
     31c:	03 97       	sbiw	r24, 0x03	; 3
     31e:	59 f0       	breq	.+22     	; 0x336 <EX_ControlIN2+0x32>
     320:	14 c0       	rjmp	.+40     	; 0x34a <EX_ControlIN2+0x46>
	{
			case FALLING_EDGE:
				CLR_BIT(MCUCSR , MCUCSR_ISC2);
     322:	84 e5       	ldi	r24, 0x54	; 84
     324:	90 e0       	ldi	r25, 0x00	; 0
     326:	fc 01       	movw	r30, r24
     328:	20 81       	ld	r18, Z
     32a:	84 e5       	ldi	r24, 0x54	; 84
     32c:	90 e0       	ldi	r25, 0x00	; 0
     32e:	2f 7b       	andi	r18, 0xBF	; 191
     330:	fc 01       	movw	r30, r24
     332:	20 83       	st	Z, r18
				break;
     334:	14 c0       	rjmp	.+40     	; 0x35e <EX_ControlIN2+0x5a>
			case RISING_AGE:
				SET_BIT(MCUCSR , MCUCSR_ISC2);
     336:	84 e5       	ldi	r24, 0x54	; 84
     338:	90 e0       	ldi	r25, 0x00	; 0
     33a:	fc 01       	movw	r30, r24
     33c:	20 81       	ld	r18, Z
     33e:	84 e5       	ldi	r24, 0x54	; 84
     340:	90 e0       	ldi	r25, 0x00	; 0
     342:	20 64       	ori	r18, 0x40	; 64
     344:	fc 01       	movw	r30, r24
     346:	20 83       	st	Z, r18
				break;
     348:	0a c0       	rjmp	.+20     	; 0x35e <EX_ControlIN2+0x5a>
			default:
				CLR_BIT(MCUCSR , MCUCSR_ISC2);
     34a:	84 e5       	ldi	r24, 0x54	; 84
     34c:	90 e0       	ldi	r25, 0x00	; 0
     34e:	fc 01       	movw	r30, r24
     350:	20 81       	ld	r18, Z
     352:	84 e5       	ldi	r24, 0x54	; 84
     354:	90 e0       	ldi	r25, 0x00	; 0
     356:	2f 7b       	andi	r18, 0xBF	; 191
     358:	fc 01       	movw	r30, r24
     35a:	20 83       	st	Z, r18
				break;
     35c:	00 00       	nop
		}
}
     35e:	00 00       	nop
     360:	0f 90       	pop	r0
     362:	df 91       	pop	r29
     364:	cf 91       	pop	r28
     366:	08 95       	ret

00000368 <Dio_setPinDir>:
  * @brief  : Set Direction of Bit (Input or Output)
  * @param  : CopyPinNum
  * @param  : CopyPinDir
  */
void Dio_setPinDir(u8 CopyPinNum,u8 CopyPinDir)
{
     368:	cf 93       	push	r28
     36a:	df 93       	push	r29
     36c:	00 d0       	rcall	.+0      	; 0x36e <Dio_setPinDir+0x6>
     36e:	cd b7       	in	r28, 0x3d	; 61
     370:	de b7       	in	r29, 0x3e	; 62
     372:	89 83       	std	Y+1, r24	; 0x01
     374:	6a 83       	std	Y+2, r22	; 0x02
	switch (CopyPinDir)
     376:	8a 81       	ldd	r24, Y+2	; 0x02
     378:	88 2f       	mov	r24, r24
     37a:	90 e0       	ldi	r25, 0x00	; 0
     37c:	00 97       	sbiw	r24, 0x00	; 0
     37e:	91 f1       	breq	.+100    	; 0x3e4 <Dio_setPinDir+0x7c>
     380:	01 97       	sbiw	r24, 0x01	; 1
     382:	09 f0       	breq	.+2      	; 0x386 <Dio_setPinDir+0x1e>
		case Direction_Pin_Input:
				CLR_BIT(*Arr_DDr[CopyPinNum / 8 ],CopyPinNum % 8 );
			break;

		default :
			break;
     384:	5f c0       	rjmp	.+190    	; 0x444 <__DATA_REGION_LENGTH__+0x44>
void Dio_setPinDir(u8 CopyPinNum,u8 CopyPinDir)
{
	switch (CopyPinDir)
	{
		case Direction_Pin_Output:
				SET_BIT(*Arr_DDr[CopyPinNum / 8 ],CopyPinNum % 8 );
     386:	89 81       	ldd	r24, Y+1	; 0x01
     388:	86 95       	lsr	r24
     38a:	86 95       	lsr	r24
     38c:	86 95       	lsr	r24
     38e:	88 2f       	mov	r24, r24
     390:	90 e0       	ldi	r25, 0x00	; 0
     392:	88 0f       	add	r24, r24
     394:	99 1f       	adc	r25, r25
     396:	80 5a       	subi	r24, 0xA0	; 160
     398:	9f 4f       	sbci	r25, 0xFF	; 255
     39a:	fc 01       	movw	r30, r24
     39c:	80 81       	ld	r24, Z
     39e:	91 81       	ldd	r25, Z+1	; 0x01
     3a0:	fc 01       	movw	r30, r24
     3a2:	80 81       	ld	r24, Z
     3a4:	48 2f       	mov	r20, r24
     3a6:	89 81       	ldd	r24, Y+1	; 0x01
     3a8:	88 2f       	mov	r24, r24
     3aa:	90 e0       	ldi	r25, 0x00	; 0
     3ac:	9c 01       	movw	r18, r24
     3ae:	27 70       	andi	r18, 0x07	; 7
     3b0:	33 27       	eor	r19, r19
     3b2:	81 e0       	ldi	r24, 0x01	; 1
     3b4:	90 e0       	ldi	r25, 0x00	; 0
     3b6:	02 c0       	rjmp	.+4      	; 0x3bc <Dio_setPinDir+0x54>
     3b8:	88 0f       	add	r24, r24
     3ba:	99 1f       	adc	r25, r25
     3bc:	2a 95       	dec	r18
     3be:	e2 f7       	brpl	.-8      	; 0x3b8 <Dio_setPinDir+0x50>
     3c0:	24 2f       	mov	r18, r20
     3c2:	28 2b       	or	r18, r24
     3c4:	89 81       	ldd	r24, Y+1	; 0x01
     3c6:	86 95       	lsr	r24
     3c8:	86 95       	lsr	r24
     3ca:	86 95       	lsr	r24
     3cc:	88 2f       	mov	r24, r24
     3ce:	90 e0       	ldi	r25, 0x00	; 0
     3d0:	88 0f       	add	r24, r24
     3d2:	99 1f       	adc	r25, r25
     3d4:	80 5a       	subi	r24, 0xA0	; 160
     3d6:	9f 4f       	sbci	r25, 0xFF	; 255
     3d8:	fc 01       	movw	r30, r24
     3da:	80 81       	ld	r24, Z
     3dc:	91 81       	ldd	r25, Z+1	; 0x01
     3de:	fc 01       	movw	r30, r24
     3e0:	20 83       	st	Z, r18
			break;
     3e2:	30 c0       	rjmp	.+96     	; 0x444 <__DATA_REGION_LENGTH__+0x44>

		case Direction_Pin_Input:
				CLR_BIT(*Arr_DDr[CopyPinNum / 8 ],CopyPinNum % 8 );
     3e4:	89 81       	ldd	r24, Y+1	; 0x01
     3e6:	86 95       	lsr	r24
     3e8:	86 95       	lsr	r24
     3ea:	86 95       	lsr	r24
     3ec:	88 2f       	mov	r24, r24
     3ee:	90 e0       	ldi	r25, 0x00	; 0
     3f0:	88 0f       	add	r24, r24
     3f2:	99 1f       	adc	r25, r25
     3f4:	80 5a       	subi	r24, 0xA0	; 160
     3f6:	9f 4f       	sbci	r25, 0xFF	; 255
     3f8:	fc 01       	movw	r30, r24
     3fa:	80 81       	ld	r24, Z
     3fc:	91 81       	ldd	r25, Z+1	; 0x01
     3fe:	fc 01       	movw	r30, r24
     400:	80 81       	ld	r24, Z
     402:	48 2f       	mov	r20, r24
     404:	89 81       	ldd	r24, Y+1	; 0x01
     406:	88 2f       	mov	r24, r24
     408:	90 e0       	ldi	r25, 0x00	; 0
     40a:	9c 01       	movw	r18, r24
     40c:	27 70       	andi	r18, 0x07	; 7
     40e:	33 27       	eor	r19, r19
     410:	81 e0       	ldi	r24, 0x01	; 1
     412:	90 e0       	ldi	r25, 0x00	; 0
     414:	02 c0       	rjmp	.+4      	; 0x41a <__DATA_REGION_LENGTH__+0x1a>
     416:	88 0f       	add	r24, r24
     418:	99 1f       	adc	r25, r25
     41a:	2a 95       	dec	r18
     41c:	e2 f7       	brpl	.-8      	; 0x416 <__DATA_REGION_LENGTH__+0x16>
     41e:	80 95       	com	r24
     420:	24 2f       	mov	r18, r20
     422:	28 23       	and	r18, r24
     424:	89 81       	ldd	r24, Y+1	; 0x01
     426:	86 95       	lsr	r24
     428:	86 95       	lsr	r24
     42a:	86 95       	lsr	r24
     42c:	88 2f       	mov	r24, r24
     42e:	90 e0       	ldi	r25, 0x00	; 0
     430:	88 0f       	add	r24, r24
     432:	99 1f       	adc	r25, r25
     434:	80 5a       	subi	r24, 0xA0	; 160
     436:	9f 4f       	sbci	r25, 0xFF	; 255
     438:	fc 01       	movw	r30, r24
     43a:	80 81       	ld	r24, Z
     43c:	91 81       	ldd	r25, Z+1	; 0x01
     43e:	fc 01       	movw	r30, r24
     440:	20 83       	st	Z, r18
			break;
     442:	00 00       	nop

		default :
			break;
	}
}
     444:	00 00       	nop
     446:	0f 90       	pop	r0
     448:	0f 90       	pop	r0
     44a:	df 91       	pop	r29
     44c:	cf 91       	pop	r28
     44e:	08 95       	ret

00000450 <Dio_setPinVal>:
  * @brief  : Set Status of Bit (High or Low or Toggle)
  * @param  : CopyPinNum
  * @param  : CopyPinVal
  */
void Dio_setPinVal(u8 CopyPinNum,u8 CopyPinVal)
{
     450:	cf 93       	push	r28
     452:	df 93       	push	r29
     454:	00 d0       	rcall	.+0      	; 0x456 <Dio_setPinVal+0x6>
     456:	cd b7       	in	r28, 0x3d	; 61
     458:	de b7       	in	r29, 0x3e	; 62
     45a:	89 83       	std	Y+1, r24	; 0x01
     45c:	6a 83       	std	Y+2, r22	; 0x02
	switch (CopyPinVal)
     45e:	8a 81       	ldd	r24, Y+2	; 0x02
     460:	88 2f       	mov	r24, r24
     462:	90 e0       	ldi	r25, 0x00	; 0
     464:	81 30       	cpi	r24, 0x01	; 1
     466:	91 05       	cpc	r25, r1
     468:	39 f0       	breq	.+14     	; 0x478 <__stack+0x19>
     46a:	82 30       	cpi	r24, 0x02	; 2
     46c:	91 05       	cpc	r25, r1
     46e:	09 f4       	brne	.+2      	; 0x472 <__stack+0x13>
     470:	62 c0       	rjmp	.+196    	; 0x536 <__stack+0xd7>
     472:	89 2b       	or	r24, r25
     474:	81 f1       	breq	.+96     	; 0x4d6 <__stack+0x77>
		case Status_Pin_Toggle:
				TOGGLE_BIT(*Arr_Port[CopyPinNum / 8 ],CopyPinNum % 8 );
			break;

		default :
			break;
     476:	8e c0       	rjmp	.+284    	; 0x594 <__stack+0x135>
void Dio_setPinVal(u8 CopyPinNum,u8 CopyPinVal)
{
	switch (CopyPinVal)
	{
		case Status_Pin_High:
				SET_BIT(*Arr_Port[CopyPinNum / 8 ],CopyPinNum % 8 );
     478:	89 81       	ldd	r24, Y+1	; 0x01
     47a:	86 95       	lsr	r24
     47c:	86 95       	lsr	r24
     47e:	86 95       	lsr	r24
     480:	88 2f       	mov	r24, r24
     482:	90 e0       	ldi	r25, 0x00	; 0
     484:	88 0f       	add	r24, r24
     486:	99 1f       	adc	r25, r25
     488:	88 59       	subi	r24, 0x98	; 152
     48a:	9f 4f       	sbci	r25, 0xFF	; 255
     48c:	fc 01       	movw	r30, r24
     48e:	80 81       	ld	r24, Z
     490:	91 81       	ldd	r25, Z+1	; 0x01
     492:	fc 01       	movw	r30, r24
     494:	80 81       	ld	r24, Z
     496:	48 2f       	mov	r20, r24
     498:	89 81       	ldd	r24, Y+1	; 0x01
     49a:	88 2f       	mov	r24, r24
     49c:	90 e0       	ldi	r25, 0x00	; 0
     49e:	9c 01       	movw	r18, r24
     4a0:	27 70       	andi	r18, 0x07	; 7
     4a2:	33 27       	eor	r19, r19
     4a4:	81 e0       	ldi	r24, 0x01	; 1
     4a6:	90 e0       	ldi	r25, 0x00	; 0
     4a8:	02 c0       	rjmp	.+4      	; 0x4ae <__stack+0x4f>
     4aa:	88 0f       	add	r24, r24
     4ac:	99 1f       	adc	r25, r25
     4ae:	2a 95       	dec	r18
     4b0:	e2 f7       	brpl	.-8      	; 0x4aa <__stack+0x4b>
     4b2:	24 2f       	mov	r18, r20
     4b4:	28 2b       	or	r18, r24
     4b6:	89 81       	ldd	r24, Y+1	; 0x01
     4b8:	86 95       	lsr	r24
     4ba:	86 95       	lsr	r24
     4bc:	86 95       	lsr	r24
     4be:	88 2f       	mov	r24, r24
     4c0:	90 e0       	ldi	r25, 0x00	; 0
     4c2:	88 0f       	add	r24, r24
     4c4:	99 1f       	adc	r25, r25
     4c6:	88 59       	subi	r24, 0x98	; 152
     4c8:	9f 4f       	sbci	r25, 0xFF	; 255
     4ca:	fc 01       	movw	r30, r24
     4cc:	80 81       	ld	r24, Z
     4ce:	91 81       	ldd	r25, Z+1	; 0x01
     4d0:	fc 01       	movw	r30, r24
     4d2:	20 83       	st	Z, r18
			break;
     4d4:	5f c0       	rjmp	.+190    	; 0x594 <__stack+0x135>

		case Status_Pin_Low:
				CLR_BIT(*Arr_Port[CopyPinNum / 8 ],CopyPinNum % 8 );
     4d6:	89 81       	ldd	r24, Y+1	; 0x01
     4d8:	86 95       	lsr	r24
     4da:	86 95       	lsr	r24
     4dc:	86 95       	lsr	r24
     4de:	88 2f       	mov	r24, r24
     4e0:	90 e0       	ldi	r25, 0x00	; 0
     4e2:	88 0f       	add	r24, r24
     4e4:	99 1f       	adc	r25, r25
     4e6:	88 59       	subi	r24, 0x98	; 152
     4e8:	9f 4f       	sbci	r25, 0xFF	; 255
     4ea:	fc 01       	movw	r30, r24
     4ec:	80 81       	ld	r24, Z
     4ee:	91 81       	ldd	r25, Z+1	; 0x01
     4f0:	fc 01       	movw	r30, r24
     4f2:	80 81       	ld	r24, Z
     4f4:	48 2f       	mov	r20, r24
     4f6:	89 81       	ldd	r24, Y+1	; 0x01
     4f8:	88 2f       	mov	r24, r24
     4fa:	90 e0       	ldi	r25, 0x00	; 0
     4fc:	9c 01       	movw	r18, r24
     4fe:	27 70       	andi	r18, 0x07	; 7
     500:	33 27       	eor	r19, r19
     502:	81 e0       	ldi	r24, 0x01	; 1
     504:	90 e0       	ldi	r25, 0x00	; 0
     506:	02 c0       	rjmp	.+4      	; 0x50c <__stack+0xad>
     508:	88 0f       	add	r24, r24
     50a:	99 1f       	adc	r25, r25
     50c:	2a 95       	dec	r18
     50e:	e2 f7       	brpl	.-8      	; 0x508 <__stack+0xa9>
     510:	80 95       	com	r24
     512:	24 2f       	mov	r18, r20
     514:	28 23       	and	r18, r24
     516:	89 81       	ldd	r24, Y+1	; 0x01
     518:	86 95       	lsr	r24
     51a:	86 95       	lsr	r24
     51c:	86 95       	lsr	r24
     51e:	88 2f       	mov	r24, r24
     520:	90 e0       	ldi	r25, 0x00	; 0
     522:	88 0f       	add	r24, r24
     524:	99 1f       	adc	r25, r25
     526:	88 59       	subi	r24, 0x98	; 152
     528:	9f 4f       	sbci	r25, 0xFF	; 255
     52a:	fc 01       	movw	r30, r24
     52c:	80 81       	ld	r24, Z
     52e:	91 81       	ldd	r25, Z+1	; 0x01
     530:	fc 01       	movw	r30, r24
     532:	20 83       	st	Z, r18
			break;
     534:	2f c0       	rjmp	.+94     	; 0x594 <__stack+0x135>

		case Status_Pin_Toggle:
				TOGGLE_BIT(*Arr_Port[CopyPinNum / 8 ],CopyPinNum % 8 );
     536:	89 81       	ldd	r24, Y+1	; 0x01
     538:	86 95       	lsr	r24
     53a:	86 95       	lsr	r24
     53c:	86 95       	lsr	r24
     53e:	88 2f       	mov	r24, r24
     540:	90 e0       	ldi	r25, 0x00	; 0
     542:	88 0f       	add	r24, r24
     544:	99 1f       	adc	r25, r25
     546:	88 59       	subi	r24, 0x98	; 152
     548:	9f 4f       	sbci	r25, 0xFF	; 255
     54a:	fc 01       	movw	r30, r24
     54c:	80 81       	ld	r24, Z
     54e:	91 81       	ldd	r25, Z+1	; 0x01
     550:	fc 01       	movw	r30, r24
     552:	80 81       	ld	r24, Z
     554:	48 2f       	mov	r20, r24
     556:	89 81       	ldd	r24, Y+1	; 0x01
     558:	88 2f       	mov	r24, r24
     55a:	90 e0       	ldi	r25, 0x00	; 0
     55c:	9c 01       	movw	r18, r24
     55e:	27 70       	andi	r18, 0x07	; 7
     560:	33 27       	eor	r19, r19
     562:	81 e0       	ldi	r24, 0x01	; 1
     564:	90 e0       	ldi	r25, 0x00	; 0
     566:	02 c0       	rjmp	.+4      	; 0x56c <__stack+0x10d>
     568:	88 0f       	add	r24, r24
     56a:	99 1f       	adc	r25, r25
     56c:	2a 95       	dec	r18
     56e:	e2 f7       	brpl	.-8      	; 0x568 <__stack+0x109>
     570:	24 2f       	mov	r18, r20
     572:	28 27       	eor	r18, r24
     574:	89 81       	ldd	r24, Y+1	; 0x01
     576:	86 95       	lsr	r24
     578:	86 95       	lsr	r24
     57a:	86 95       	lsr	r24
     57c:	88 2f       	mov	r24, r24
     57e:	90 e0       	ldi	r25, 0x00	; 0
     580:	88 0f       	add	r24, r24
     582:	99 1f       	adc	r25, r25
     584:	88 59       	subi	r24, 0x98	; 152
     586:	9f 4f       	sbci	r25, 0xFF	; 255
     588:	fc 01       	movw	r30, r24
     58a:	80 81       	ld	r24, Z
     58c:	91 81       	ldd	r25, Z+1	; 0x01
     58e:	fc 01       	movw	r30, r24
     590:	20 83       	st	Z, r18
			break;
     592:	00 00       	nop

		default :
			break;
	}
}
     594:	00 00       	nop
     596:	0f 90       	pop	r0
     598:	0f 90       	pop	r0
     59a:	df 91       	pop	r29
     59c:	cf 91       	pop	r28
     59e:	08 95       	ret

000005a0 <Dio_getPinVal>:
  * @brief  : Get Status of Bit (High or Low)
  * @param  : CopyPinNum
  * @RetVal : Ret
  */
Std_Return Dio_getPinVal(u8 CopyPinNum)
{
     5a0:	cf 93       	push	r28
     5a2:	df 93       	push	r29
     5a4:	00 d0       	rcall	.+0      	; 0x5a6 <Dio_getPinVal+0x6>
     5a6:	cd b7       	in	r28, 0x3d	; 61
     5a8:	de b7       	in	r29, 0x3e	; 62
     5aa:	8a 83       	std	Y+2, r24	; 0x02
	u8 Ret = 0;
     5ac:	19 82       	std	Y+1, r1	; 0x01
	Ret = GET_BIT(*Arr_Pin[CopyPinNum / 8 ],CopyPinNum % 8 );
     5ae:	8a 81       	ldd	r24, Y+2	; 0x02
     5b0:	86 95       	lsr	r24
     5b2:	86 95       	lsr	r24
     5b4:	86 95       	lsr	r24
     5b6:	88 2f       	mov	r24, r24
     5b8:	90 e0       	ldi	r25, 0x00	; 0
     5ba:	88 0f       	add	r24, r24
     5bc:	99 1f       	adc	r25, r25
     5be:	80 59       	subi	r24, 0x90	; 144
     5c0:	9f 4f       	sbci	r25, 0xFF	; 255
     5c2:	fc 01       	movw	r30, r24
     5c4:	80 81       	ld	r24, Z
     5c6:	91 81       	ldd	r25, Z+1	; 0x01
     5c8:	fc 01       	movw	r30, r24
     5ca:	80 81       	ld	r24, Z
     5cc:	88 2f       	mov	r24, r24
     5ce:	90 e0       	ldi	r25, 0x00	; 0
     5d0:	2a 81       	ldd	r18, Y+2	; 0x02
     5d2:	22 2f       	mov	r18, r18
     5d4:	30 e0       	ldi	r19, 0x00	; 0
     5d6:	27 70       	andi	r18, 0x07	; 7
     5d8:	33 27       	eor	r19, r19
     5da:	02 c0       	rjmp	.+4      	; 0x5e0 <Dio_getPinVal+0x40>
     5dc:	95 95       	asr	r25
     5de:	87 95       	ror	r24
     5e0:	2a 95       	dec	r18
     5e2:	e2 f7       	brpl	.-8      	; 0x5dc <Dio_getPinVal+0x3c>
     5e4:	81 70       	andi	r24, 0x01	; 1
     5e6:	89 83       	std	Y+1, r24	; 0x01
	return Ret;
     5e8:	89 81       	ldd	r24, Y+1	; 0x01
}
     5ea:	0f 90       	pop	r0
     5ec:	0f 90       	pop	r0
     5ee:	df 91       	pop	r29
     5f0:	cf 91       	pop	r28
     5f2:	08 95       	ret

000005f4 <DIO_vidSetPinSDir>:
  * @param  : u8PinsNum
  * @param  : Copyu8Size
  * @param  : Copyu8Dir
  */
void DIO_vidSetPinSDir(u8 * u8PinsNum,u8 Copyu8Size,u8 Copyu8Dir)
{
     5f4:	cf 93       	push	r28
     5f6:	df 93       	push	r29
     5f8:	00 d0       	rcall	.+0      	; 0x5fa <DIO_vidSetPinSDir+0x6>
     5fa:	00 d0       	rcall	.+0      	; 0x5fc <DIO_vidSetPinSDir+0x8>
     5fc:	1f 92       	push	r1
     5fe:	cd b7       	in	r28, 0x3d	; 61
     600:	de b7       	in	r29, 0x3e	; 62
     602:	9b 83       	std	Y+3, r25	; 0x03
     604:	8a 83       	std	Y+2, r24	; 0x02
     606:	6c 83       	std	Y+4, r22	; 0x04
     608:	4d 83       	std	Y+5, r20	; 0x05
	u8 i;
	for(i=0;i<Copyu8Size;i++){
     60a:	19 82       	std	Y+1, r1	; 0x01
     60c:	9b c0       	rjmp	.+310    	; 0x744 <DIO_vidSetPinSDir+0x150>
		switch (Copyu8Dir){
     60e:	8d 81       	ldd	r24, Y+5	; 0x05
     610:	88 2f       	mov	r24, r24
     612:	90 e0       	ldi	r25, 0x00	; 0
     614:	00 97       	sbiw	r24, 0x00	; 0
     616:	21 f0       	breq	.+8      	; 0x620 <DIO_vidSetPinSDir+0x2c>
     618:	01 97       	sbiw	r24, 0x01	; 1
     61a:	09 f4       	brne	.+2      	; 0x61e <DIO_vidSetPinSDir+0x2a>
     61c:	49 c0       	rjmp	.+146    	; 0x6b0 <DIO_vidSetPinSDir+0xbc>
     61e:	8f c0       	rjmp	.+286    	; 0x73e <DIO_vidSetPinSDir+0x14a>
		case Direction_Pin_Input  :CLR_BIT((*Arr_DDr[u8PinsNum[i] / 8]), (u8PinsNum[i] % 8));break;
     620:	89 81       	ldd	r24, Y+1	; 0x01
     622:	88 2f       	mov	r24, r24
     624:	90 e0       	ldi	r25, 0x00	; 0
     626:	2a 81       	ldd	r18, Y+2	; 0x02
     628:	3b 81       	ldd	r19, Y+3	; 0x03
     62a:	82 0f       	add	r24, r18
     62c:	93 1f       	adc	r25, r19
     62e:	fc 01       	movw	r30, r24
     630:	80 81       	ld	r24, Z
     632:	86 95       	lsr	r24
     634:	86 95       	lsr	r24
     636:	86 95       	lsr	r24
     638:	88 2f       	mov	r24, r24
     63a:	90 e0       	ldi	r25, 0x00	; 0
     63c:	88 0f       	add	r24, r24
     63e:	99 1f       	adc	r25, r25
     640:	80 5a       	subi	r24, 0xA0	; 160
     642:	9f 4f       	sbci	r25, 0xFF	; 255
     644:	fc 01       	movw	r30, r24
     646:	80 81       	ld	r24, Z
     648:	91 81       	ldd	r25, Z+1	; 0x01
     64a:	fc 01       	movw	r30, r24
     64c:	80 81       	ld	r24, Z
     64e:	48 2f       	mov	r20, r24
     650:	89 81       	ldd	r24, Y+1	; 0x01
     652:	88 2f       	mov	r24, r24
     654:	90 e0       	ldi	r25, 0x00	; 0
     656:	2a 81       	ldd	r18, Y+2	; 0x02
     658:	3b 81       	ldd	r19, Y+3	; 0x03
     65a:	82 0f       	add	r24, r18
     65c:	93 1f       	adc	r25, r19
     65e:	fc 01       	movw	r30, r24
     660:	80 81       	ld	r24, Z
     662:	88 2f       	mov	r24, r24
     664:	90 e0       	ldi	r25, 0x00	; 0
     666:	9c 01       	movw	r18, r24
     668:	27 70       	andi	r18, 0x07	; 7
     66a:	33 27       	eor	r19, r19
     66c:	81 e0       	ldi	r24, 0x01	; 1
     66e:	90 e0       	ldi	r25, 0x00	; 0
     670:	02 c0       	rjmp	.+4      	; 0x676 <DIO_vidSetPinSDir+0x82>
     672:	88 0f       	add	r24, r24
     674:	99 1f       	adc	r25, r25
     676:	2a 95       	dec	r18
     678:	e2 f7       	brpl	.-8      	; 0x672 <DIO_vidSetPinSDir+0x7e>
     67a:	80 95       	com	r24
     67c:	48 23       	and	r20, r24
     67e:	89 81       	ldd	r24, Y+1	; 0x01
     680:	88 2f       	mov	r24, r24
     682:	90 e0       	ldi	r25, 0x00	; 0
     684:	2a 81       	ldd	r18, Y+2	; 0x02
     686:	3b 81       	ldd	r19, Y+3	; 0x03
     688:	82 0f       	add	r24, r18
     68a:	93 1f       	adc	r25, r19
     68c:	fc 01       	movw	r30, r24
     68e:	80 81       	ld	r24, Z
     690:	86 95       	lsr	r24
     692:	86 95       	lsr	r24
     694:	86 95       	lsr	r24
     696:	88 2f       	mov	r24, r24
     698:	90 e0       	ldi	r25, 0x00	; 0
     69a:	88 0f       	add	r24, r24
     69c:	99 1f       	adc	r25, r25
     69e:	80 5a       	subi	r24, 0xA0	; 160
     6a0:	9f 4f       	sbci	r25, 0xFF	; 255
     6a2:	fc 01       	movw	r30, r24
     6a4:	80 81       	ld	r24, Z
     6a6:	91 81       	ldd	r25, Z+1	; 0x01
     6a8:	24 2f       	mov	r18, r20
     6aa:	fc 01       	movw	r30, r24
     6ac:	20 83       	st	Z, r18
     6ae:	47 c0       	rjmp	.+142    	; 0x73e <DIO_vidSetPinSDir+0x14a>
		case Direction_Pin_Output :SET_BIT((*Arr_DDr[u8PinsNum[i] / 8]), (u8PinsNum[i] % 8));break;
     6b0:	89 81       	ldd	r24, Y+1	; 0x01
     6b2:	88 2f       	mov	r24, r24
     6b4:	90 e0       	ldi	r25, 0x00	; 0
     6b6:	2a 81       	ldd	r18, Y+2	; 0x02
     6b8:	3b 81       	ldd	r19, Y+3	; 0x03
     6ba:	82 0f       	add	r24, r18
     6bc:	93 1f       	adc	r25, r19
     6be:	fc 01       	movw	r30, r24
     6c0:	80 81       	ld	r24, Z
     6c2:	86 95       	lsr	r24
     6c4:	86 95       	lsr	r24
     6c6:	86 95       	lsr	r24
     6c8:	88 2f       	mov	r24, r24
     6ca:	90 e0       	ldi	r25, 0x00	; 0
     6cc:	88 0f       	add	r24, r24
     6ce:	99 1f       	adc	r25, r25
     6d0:	80 5a       	subi	r24, 0xA0	; 160
     6d2:	9f 4f       	sbci	r25, 0xFF	; 255
     6d4:	fc 01       	movw	r30, r24
     6d6:	80 81       	ld	r24, Z
     6d8:	91 81       	ldd	r25, Z+1	; 0x01
     6da:	fc 01       	movw	r30, r24
     6dc:	80 81       	ld	r24, Z
     6de:	48 2f       	mov	r20, r24
     6e0:	89 81       	ldd	r24, Y+1	; 0x01
     6e2:	88 2f       	mov	r24, r24
     6e4:	90 e0       	ldi	r25, 0x00	; 0
     6e6:	2a 81       	ldd	r18, Y+2	; 0x02
     6e8:	3b 81       	ldd	r19, Y+3	; 0x03
     6ea:	82 0f       	add	r24, r18
     6ec:	93 1f       	adc	r25, r19
     6ee:	fc 01       	movw	r30, r24
     6f0:	80 81       	ld	r24, Z
     6f2:	88 2f       	mov	r24, r24
     6f4:	90 e0       	ldi	r25, 0x00	; 0
     6f6:	9c 01       	movw	r18, r24
     6f8:	27 70       	andi	r18, 0x07	; 7
     6fa:	33 27       	eor	r19, r19
     6fc:	81 e0       	ldi	r24, 0x01	; 1
     6fe:	90 e0       	ldi	r25, 0x00	; 0
     700:	02 c0       	rjmp	.+4      	; 0x706 <DIO_vidSetPinSDir+0x112>
     702:	88 0f       	add	r24, r24
     704:	99 1f       	adc	r25, r25
     706:	2a 95       	dec	r18
     708:	e2 f7       	brpl	.-8      	; 0x702 <DIO_vidSetPinSDir+0x10e>
     70a:	48 2b       	or	r20, r24
     70c:	89 81       	ldd	r24, Y+1	; 0x01
     70e:	88 2f       	mov	r24, r24
     710:	90 e0       	ldi	r25, 0x00	; 0
     712:	2a 81       	ldd	r18, Y+2	; 0x02
     714:	3b 81       	ldd	r19, Y+3	; 0x03
     716:	82 0f       	add	r24, r18
     718:	93 1f       	adc	r25, r19
     71a:	fc 01       	movw	r30, r24
     71c:	80 81       	ld	r24, Z
     71e:	86 95       	lsr	r24
     720:	86 95       	lsr	r24
     722:	86 95       	lsr	r24
     724:	88 2f       	mov	r24, r24
     726:	90 e0       	ldi	r25, 0x00	; 0
     728:	88 0f       	add	r24, r24
     72a:	99 1f       	adc	r25, r25
     72c:	80 5a       	subi	r24, 0xA0	; 160
     72e:	9f 4f       	sbci	r25, 0xFF	; 255
     730:	fc 01       	movw	r30, r24
     732:	80 81       	ld	r24, Z
     734:	91 81       	ldd	r25, Z+1	; 0x01
     736:	24 2f       	mov	r18, r20
     738:	fc 01       	movw	r30, r24
     73a:	20 83       	st	Z, r18
     73c:	00 00       	nop
  * @param  : Copyu8Dir
  */
void DIO_vidSetPinSDir(u8 * u8PinsNum,u8 Copyu8Size,u8 Copyu8Dir)
{
	u8 i;
	for(i=0;i<Copyu8Size;i++){
     73e:	89 81       	ldd	r24, Y+1	; 0x01
     740:	8f 5f       	subi	r24, 0xFF	; 255
     742:	89 83       	std	Y+1, r24	; 0x01
     744:	99 81       	ldd	r25, Y+1	; 0x01
     746:	8c 81       	ldd	r24, Y+4	; 0x04
     748:	98 17       	cp	r25, r24
     74a:	08 f4       	brcc	.+2      	; 0x74e <DIO_vidSetPinSDir+0x15a>
     74c:	60 cf       	rjmp	.-320    	; 0x60e <DIO_vidSetPinSDir+0x1a>
		switch (Copyu8Dir){
		case Direction_Pin_Input  :CLR_BIT((*Arr_DDr[u8PinsNum[i] / 8]), (u8PinsNum[i] % 8));break;
		case Direction_Pin_Output :SET_BIT((*Arr_DDr[u8PinsNum[i] / 8]), (u8PinsNum[i] % 8));break;
		}
	}
}
     74e:	00 00       	nop
     750:	0f 90       	pop	r0
     752:	0f 90       	pop	r0
     754:	0f 90       	pop	r0
     756:	0f 90       	pop	r0
     758:	0f 90       	pop	r0
     75a:	df 91       	pop	r29
     75c:	cf 91       	pop	r28
     75e:	08 95       	ret

00000760 <DIO_vidSetPinSVal>:
  * @param  : u8PinsNum
  * @param  : Copyu8Size
  * @param  : Copyu8Val
  */
void DIO_vidSetPinSVal(u8 * u8PinsNum,u8 Copyu8Size,u8 Copyu8Val)
{
     760:	cf 93       	push	r28
     762:	df 93       	push	r29
     764:	00 d0       	rcall	.+0      	; 0x766 <DIO_vidSetPinSVal+0x6>
     766:	00 d0       	rcall	.+0      	; 0x768 <DIO_vidSetPinSVal+0x8>
     768:	1f 92       	push	r1
     76a:	cd b7       	in	r28, 0x3d	; 61
     76c:	de b7       	in	r29, 0x3e	; 62
     76e:	9b 83       	std	Y+3, r25	; 0x03
     770:	8a 83       	std	Y+2, r24	; 0x02
     772:	6c 83       	std	Y+4, r22	; 0x04
     774:	4d 83       	std	Y+5, r20	; 0x05
	u8 i;
	for(i=0;i<Copyu8Size;i++){
     776:	19 82       	std	Y+1, r1	; 0x01
     778:	9b c0       	rjmp	.+310    	; 0x8b0 <DIO_vidSetPinSVal+0x150>
		switch (Copyu8Val){
     77a:	8d 81       	ldd	r24, Y+5	; 0x05
     77c:	88 2f       	mov	r24, r24
     77e:	90 e0       	ldi	r25, 0x00	; 0
     780:	00 97       	sbiw	r24, 0x00	; 0
     782:	21 f0       	breq	.+8      	; 0x78c <DIO_vidSetPinSVal+0x2c>
     784:	01 97       	sbiw	r24, 0x01	; 1
     786:	09 f4       	brne	.+2      	; 0x78a <DIO_vidSetPinSVal+0x2a>
     788:	49 c0       	rjmp	.+146    	; 0x81c <DIO_vidSetPinSVal+0xbc>
     78a:	8f c0       	rjmp	.+286    	; 0x8aa <DIO_vidSetPinSVal+0x14a>
		case Status_Pin_Low  :CLR_BIT(*Arr_Port[u8PinsNum[i] / 8], u8PinsNum[i] % 8);break;
     78c:	89 81       	ldd	r24, Y+1	; 0x01
     78e:	88 2f       	mov	r24, r24
     790:	90 e0       	ldi	r25, 0x00	; 0
     792:	2a 81       	ldd	r18, Y+2	; 0x02
     794:	3b 81       	ldd	r19, Y+3	; 0x03
     796:	82 0f       	add	r24, r18
     798:	93 1f       	adc	r25, r19
     79a:	fc 01       	movw	r30, r24
     79c:	80 81       	ld	r24, Z
     79e:	86 95       	lsr	r24
     7a0:	86 95       	lsr	r24
     7a2:	86 95       	lsr	r24
     7a4:	88 2f       	mov	r24, r24
     7a6:	90 e0       	ldi	r25, 0x00	; 0
     7a8:	88 0f       	add	r24, r24
     7aa:	99 1f       	adc	r25, r25
     7ac:	88 59       	subi	r24, 0x98	; 152
     7ae:	9f 4f       	sbci	r25, 0xFF	; 255
     7b0:	fc 01       	movw	r30, r24
     7b2:	80 81       	ld	r24, Z
     7b4:	91 81       	ldd	r25, Z+1	; 0x01
     7b6:	fc 01       	movw	r30, r24
     7b8:	80 81       	ld	r24, Z
     7ba:	48 2f       	mov	r20, r24
     7bc:	89 81       	ldd	r24, Y+1	; 0x01
     7be:	88 2f       	mov	r24, r24
     7c0:	90 e0       	ldi	r25, 0x00	; 0
     7c2:	2a 81       	ldd	r18, Y+2	; 0x02
     7c4:	3b 81       	ldd	r19, Y+3	; 0x03
     7c6:	82 0f       	add	r24, r18
     7c8:	93 1f       	adc	r25, r19
     7ca:	fc 01       	movw	r30, r24
     7cc:	80 81       	ld	r24, Z
     7ce:	88 2f       	mov	r24, r24
     7d0:	90 e0       	ldi	r25, 0x00	; 0
     7d2:	9c 01       	movw	r18, r24
     7d4:	27 70       	andi	r18, 0x07	; 7
     7d6:	33 27       	eor	r19, r19
     7d8:	81 e0       	ldi	r24, 0x01	; 1
     7da:	90 e0       	ldi	r25, 0x00	; 0
     7dc:	02 c0       	rjmp	.+4      	; 0x7e2 <DIO_vidSetPinSVal+0x82>
     7de:	88 0f       	add	r24, r24
     7e0:	99 1f       	adc	r25, r25
     7e2:	2a 95       	dec	r18
     7e4:	e2 f7       	brpl	.-8      	; 0x7de <DIO_vidSetPinSVal+0x7e>
     7e6:	80 95       	com	r24
     7e8:	48 23       	and	r20, r24
     7ea:	89 81       	ldd	r24, Y+1	; 0x01
     7ec:	88 2f       	mov	r24, r24
     7ee:	90 e0       	ldi	r25, 0x00	; 0
     7f0:	2a 81       	ldd	r18, Y+2	; 0x02
     7f2:	3b 81       	ldd	r19, Y+3	; 0x03
     7f4:	82 0f       	add	r24, r18
     7f6:	93 1f       	adc	r25, r19
     7f8:	fc 01       	movw	r30, r24
     7fa:	80 81       	ld	r24, Z
     7fc:	86 95       	lsr	r24
     7fe:	86 95       	lsr	r24
     800:	86 95       	lsr	r24
     802:	88 2f       	mov	r24, r24
     804:	90 e0       	ldi	r25, 0x00	; 0
     806:	88 0f       	add	r24, r24
     808:	99 1f       	adc	r25, r25
     80a:	88 59       	subi	r24, 0x98	; 152
     80c:	9f 4f       	sbci	r25, 0xFF	; 255
     80e:	fc 01       	movw	r30, r24
     810:	80 81       	ld	r24, Z
     812:	91 81       	ldd	r25, Z+1	; 0x01
     814:	24 2f       	mov	r18, r20
     816:	fc 01       	movw	r30, r24
     818:	20 83       	st	Z, r18
     81a:	47 c0       	rjmp	.+142    	; 0x8aa <DIO_vidSetPinSVal+0x14a>
		case Status_Pin_High :SET_BIT(*Arr_Port[u8PinsNum[i] / 8], u8PinsNum[i] % 8);break;
     81c:	89 81       	ldd	r24, Y+1	; 0x01
     81e:	88 2f       	mov	r24, r24
     820:	90 e0       	ldi	r25, 0x00	; 0
     822:	2a 81       	ldd	r18, Y+2	; 0x02
     824:	3b 81       	ldd	r19, Y+3	; 0x03
     826:	82 0f       	add	r24, r18
     828:	93 1f       	adc	r25, r19
     82a:	fc 01       	movw	r30, r24
     82c:	80 81       	ld	r24, Z
     82e:	86 95       	lsr	r24
     830:	86 95       	lsr	r24
     832:	86 95       	lsr	r24
     834:	88 2f       	mov	r24, r24
     836:	90 e0       	ldi	r25, 0x00	; 0
     838:	88 0f       	add	r24, r24
     83a:	99 1f       	adc	r25, r25
     83c:	88 59       	subi	r24, 0x98	; 152
     83e:	9f 4f       	sbci	r25, 0xFF	; 255
     840:	fc 01       	movw	r30, r24
     842:	80 81       	ld	r24, Z
     844:	91 81       	ldd	r25, Z+1	; 0x01
     846:	fc 01       	movw	r30, r24
     848:	80 81       	ld	r24, Z
     84a:	48 2f       	mov	r20, r24
     84c:	89 81       	ldd	r24, Y+1	; 0x01
     84e:	88 2f       	mov	r24, r24
     850:	90 e0       	ldi	r25, 0x00	; 0
     852:	2a 81       	ldd	r18, Y+2	; 0x02
     854:	3b 81       	ldd	r19, Y+3	; 0x03
     856:	82 0f       	add	r24, r18
     858:	93 1f       	adc	r25, r19
     85a:	fc 01       	movw	r30, r24
     85c:	80 81       	ld	r24, Z
     85e:	88 2f       	mov	r24, r24
     860:	90 e0       	ldi	r25, 0x00	; 0
     862:	9c 01       	movw	r18, r24
     864:	27 70       	andi	r18, 0x07	; 7
     866:	33 27       	eor	r19, r19
     868:	81 e0       	ldi	r24, 0x01	; 1
     86a:	90 e0       	ldi	r25, 0x00	; 0
     86c:	02 c0       	rjmp	.+4      	; 0x872 <DIO_vidSetPinSVal+0x112>
     86e:	88 0f       	add	r24, r24
     870:	99 1f       	adc	r25, r25
     872:	2a 95       	dec	r18
     874:	e2 f7       	brpl	.-8      	; 0x86e <DIO_vidSetPinSVal+0x10e>
     876:	48 2b       	or	r20, r24
     878:	89 81       	ldd	r24, Y+1	; 0x01
     87a:	88 2f       	mov	r24, r24
     87c:	90 e0       	ldi	r25, 0x00	; 0
     87e:	2a 81       	ldd	r18, Y+2	; 0x02
     880:	3b 81       	ldd	r19, Y+3	; 0x03
     882:	82 0f       	add	r24, r18
     884:	93 1f       	adc	r25, r19
     886:	fc 01       	movw	r30, r24
     888:	80 81       	ld	r24, Z
     88a:	86 95       	lsr	r24
     88c:	86 95       	lsr	r24
     88e:	86 95       	lsr	r24
     890:	88 2f       	mov	r24, r24
     892:	90 e0       	ldi	r25, 0x00	; 0
     894:	88 0f       	add	r24, r24
     896:	99 1f       	adc	r25, r25
     898:	88 59       	subi	r24, 0x98	; 152
     89a:	9f 4f       	sbci	r25, 0xFF	; 255
     89c:	fc 01       	movw	r30, r24
     89e:	80 81       	ld	r24, Z
     8a0:	91 81       	ldd	r25, Z+1	; 0x01
     8a2:	24 2f       	mov	r18, r20
     8a4:	fc 01       	movw	r30, r24
     8a6:	20 83       	st	Z, r18
     8a8:	00 00       	nop
  * @param  : Copyu8Val
  */
void DIO_vidSetPinSVal(u8 * u8PinsNum,u8 Copyu8Size,u8 Copyu8Val)
{
	u8 i;
	for(i=0;i<Copyu8Size;i++){
     8aa:	89 81       	ldd	r24, Y+1	; 0x01
     8ac:	8f 5f       	subi	r24, 0xFF	; 255
     8ae:	89 83       	std	Y+1, r24	; 0x01
     8b0:	99 81       	ldd	r25, Y+1	; 0x01
     8b2:	8c 81       	ldd	r24, Y+4	; 0x04
     8b4:	98 17       	cp	r25, r24
     8b6:	08 f4       	brcc	.+2      	; 0x8ba <DIO_vidSetPinSVal+0x15a>
     8b8:	60 cf       	rjmp	.-320    	; 0x77a <DIO_vidSetPinSVal+0x1a>
		switch (Copyu8Val){
		case Status_Pin_Low  :CLR_BIT(*Arr_Port[u8PinsNum[i] / 8], u8PinsNum[i] % 8);break;
		case Status_Pin_High :SET_BIT(*Arr_Port[u8PinsNum[i] / 8], u8PinsNum[i] % 8);break;
		}
	}
}
     8ba:	00 00       	nop
     8bc:	0f 90       	pop	r0
     8be:	0f 90       	pop	r0
     8c0:	0f 90       	pop	r0
     8c2:	0f 90       	pop	r0
     8c4:	0f 90       	pop	r0
     8c6:	df 91       	pop	r29
     8c8:	cf 91       	pop	r28
     8ca:	08 95       	ret

000008cc <Dio_setPortDir>:
  * @brief  : Set Direction of Port (Input or Output)
  * @param  : CopyPortNum
  * @param  : CopyPinDir
  */
void Dio_setPortDir(u8 CopyPortNum,u8 CopyPinDir)
{
     8cc:	cf 93       	push	r28
     8ce:	df 93       	push	r29
     8d0:	00 d0       	rcall	.+0      	; 0x8d2 <Dio_setPortDir+0x6>
     8d2:	cd b7       	in	r28, 0x3d	; 61
     8d4:	de b7       	in	r29, 0x3e	; 62
     8d6:	89 83       	std	Y+1, r24	; 0x01
     8d8:	6a 83       	std	Y+2, r22	; 0x02
	*Arr_DDr[CopyPortNum] = CopyPinDir;
     8da:	89 81       	ldd	r24, Y+1	; 0x01
     8dc:	88 2f       	mov	r24, r24
     8de:	90 e0       	ldi	r25, 0x00	; 0
     8e0:	88 0f       	add	r24, r24
     8e2:	99 1f       	adc	r25, r25
     8e4:	80 5a       	subi	r24, 0xA0	; 160
     8e6:	9f 4f       	sbci	r25, 0xFF	; 255
     8e8:	fc 01       	movw	r30, r24
     8ea:	80 81       	ld	r24, Z
     8ec:	91 81       	ldd	r25, Z+1	; 0x01
     8ee:	2a 81       	ldd	r18, Y+2	; 0x02
     8f0:	fc 01       	movw	r30, r24
     8f2:	20 83       	st	Z, r18
}
     8f4:	00 00       	nop
     8f6:	0f 90       	pop	r0
     8f8:	0f 90       	pop	r0
     8fa:	df 91       	pop	r29
     8fc:	cf 91       	pop	r28
     8fe:	08 95       	ret

00000900 <Dio_setPortVal>:
  * @brief  : Set Status of Port (High or Low or Toggle)
  * @param  : CopyPortNum
  * @param  : CopyPinVal
  */
void Dio_setPortVal(u8 CopyPortNum,u8 CopyPinVal)
{
     900:	cf 93       	push	r28
     902:	df 93       	push	r29
     904:	00 d0       	rcall	.+0      	; 0x906 <Dio_setPortVal+0x6>
     906:	cd b7       	in	r28, 0x3d	; 61
     908:	de b7       	in	r29, 0x3e	; 62
     90a:	89 83       	std	Y+1, r24	; 0x01
     90c:	6a 83       	std	Y+2, r22	; 0x02
	*Arr_Port[CopyPortNum] = CopyPinVal;
     90e:	89 81       	ldd	r24, Y+1	; 0x01
     910:	88 2f       	mov	r24, r24
     912:	90 e0       	ldi	r25, 0x00	; 0
     914:	88 0f       	add	r24, r24
     916:	99 1f       	adc	r25, r25
     918:	88 59       	subi	r24, 0x98	; 152
     91a:	9f 4f       	sbci	r25, 0xFF	; 255
     91c:	fc 01       	movw	r30, r24
     91e:	80 81       	ld	r24, Z
     920:	91 81       	ldd	r25, Z+1	; 0x01
     922:	2a 81       	ldd	r18, Y+2	; 0x02
     924:	fc 01       	movw	r30, r24
     926:	20 83       	st	Z, r18
}
     928:	00 00       	nop
     92a:	0f 90       	pop	r0
     92c:	0f 90       	pop	r0
     92e:	df 91       	pop	r29
     930:	cf 91       	pop	r28
     932:	08 95       	ret

00000934 <Dio_getPortVal>:
  * @brief  : Get Status of Port (High or Low)
  * @param  : CopyPortNum
  * @RetVal : Ret
  */
Std_Return Dio_getPortVal(u8 CopyPortNum)
{
     934:	cf 93       	push	r28
     936:	df 93       	push	r29
     938:	00 d0       	rcall	.+0      	; 0x93a <Dio_getPortVal+0x6>
     93a:	cd b7       	in	r28, 0x3d	; 61
     93c:	de b7       	in	r29, 0x3e	; 62
     93e:	8a 83       	std	Y+2, r24	; 0x02
	u8 Ret = 0;
     940:	19 82       	std	Y+1, r1	; 0x01
	Ret = *Arr_Pin[CopyPortNum];
     942:	8a 81       	ldd	r24, Y+2	; 0x02
     944:	88 2f       	mov	r24, r24
     946:	90 e0       	ldi	r25, 0x00	; 0
     948:	88 0f       	add	r24, r24
     94a:	99 1f       	adc	r25, r25
     94c:	80 59       	subi	r24, 0x90	; 144
     94e:	9f 4f       	sbci	r25, 0xFF	; 255
     950:	fc 01       	movw	r30, r24
     952:	80 81       	ld	r24, Z
     954:	91 81       	ldd	r25, Z+1	; 0x01
     956:	fc 01       	movw	r30, r24
     958:	80 81       	ld	r24, Z
     95a:	89 83       	std	Y+1, r24	; 0x01
	return Ret;
     95c:	89 81       	ldd	r24, Y+1	; 0x01
}
     95e:	0f 90       	pop	r0
     960:	0f 90       	pop	r0
     962:	df 91       	pop	r29
     964:	cf 91       	pop	r28
     966:	08 95       	ret

00000968 <ADC_INIT>:

/**
  * @brief  : Initialization ADC
  */
void ADC_INIT(void)
{
     968:	cf 93       	push	r28
     96a:	df 93       	push	r29
     96c:	cd b7       	in	r28, 0x3d	; 61
     96e:	de b7       	in	r29, 0x3e	; 62
#if	ADC_Stat == ADC_AREF
	CLR_BIT(ADMUX_Reg , ADMUX_REFS0);
	CLR_BIT(ADMUX_Reg , ADMUX_REFS1);
#elif ADC_Stat == ADC_AVCC
	SET_BIT(ADMUX_Reg , ADMUX_REFS0);
     970:	87 e2       	ldi	r24, 0x27	; 39
     972:	90 e0       	ldi	r25, 0x00	; 0
     974:	fc 01       	movw	r30, r24
     976:	20 81       	ld	r18, Z
     978:	87 e2       	ldi	r24, 0x27	; 39
     97a:	90 e0       	ldi	r25, 0x00	; 0
     97c:	20 64       	ori	r18, 0x40	; 64
     97e:	fc 01       	movw	r30, r24
     980:	20 83       	st	Z, r18
	CLR_BIT(ADMUX_Reg , ADMUX_REFS1);
     982:	87 e2       	ldi	r24, 0x27	; 39
     984:	90 e0       	ldi	r25, 0x00	; 0
     986:	fc 01       	movw	r30, r24
     988:	20 81       	ld	r18, Z
     98a:	87 e2       	ldi	r24, 0x27	; 39
     98c:	90 e0       	ldi	r25, 0x00	; 0
     98e:	2f 77       	andi	r18, 0x7F	; 127
     990:	fc 01       	movw	r30, r24
     992:	20 83       	st	Z, r18
#elif ADC_Stat == ADC_Inter
	SET_BIT(ADMUX_Reg , ADMUX_REFS0);
	SET_BIT(ADMUX_Reg , ADMUX_REFS1);
#endif
	SET_BIT(ADCSRA_Reg,ADCSRA_ADEN);
     994:	86 e2       	ldi	r24, 0x26	; 38
     996:	90 e0       	ldi	r25, 0x00	; 0
     998:	fc 01       	movw	r30, r24
     99a:	20 81       	ld	r18, Z
     99c:	86 e2       	ldi	r24, 0x26	; 38
     99e:	90 e0       	ldi	r25, 0x00	; 0
     9a0:	20 68       	ori	r18, 0x80	; 128
     9a2:	fc 01       	movw	r30, r24
     9a4:	20 83       	st	Z, r18
	ADCSRA_Reg |= ADC_PRESCALER;
     9a6:	86 e2       	ldi	r24, 0x26	; 38
     9a8:	90 e0       	ldi	r25, 0x00	; 0
     9aa:	fc 01       	movw	r30, r24
     9ac:	20 81       	ld	r18, Z
     9ae:	86 e2       	ldi	r24, 0x26	; 38
     9b0:	90 e0       	ldi	r25, 0x00	; 0
     9b2:	26 60       	ori	r18, 0x06	; 6
     9b4:	fc 01       	movw	r30, r24
     9b6:	20 83       	st	Z, r18
}
     9b8:	00 00       	nop
     9ba:	df 91       	pop	r29
     9bc:	cf 91       	pop	r28
     9be:	08 95       	ret

000009c0 <ADC_readDigitalSignal>:
  * @brief  : Conversion Digital Signal to Analog Signal And Return The Result
  * @param  : CopyChanal
  * @retval : Res
  */
u16 ADC_readDigitalSignal(ADC_CHANNEL CopyChanal)
{
     9c0:	cf 93       	push	r28
     9c2:	df 93       	push	r29
     9c4:	00 d0       	rcall	.+0      	; 0x9c6 <ADC_readDigitalSignal+0x6>
     9c6:	1f 92       	push	r1
     9c8:	cd b7       	in	r28, 0x3d	; 61
     9ca:	de b7       	in	r29, 0x3e	; 62
     9cc:	8b 83       	std	Y+3, r24	; 0x03
	u16 Res = Initial_Counter;
     9ce:	1a 82       	std	Y+2, r1	; 0x02
     9d0:	19 82       	std	Y+1, r1	; 0x01
	ADMUX_Reg &= ADC_CLEAR_MASK;
     9d2:	87 e2       	ldi	r24, 0x27	; 39
     9d4:	90 e0       	ldi	r25, 0x00	; 0
     9d6:	fc 01       	movw	r30, r24
     9d8:	20 81       	ld	r18, Z
     9da:	87 e2       	ldi	r24, 0x27	; 39
     9dc:	90 e0       	ldi	r25, 0x00	; 0
     9de:	20 7e       	andi	r18, 0xE0	; 224
     9e0:	fc 01       	movw	r30, r24
     9e2:	20 83       	st	Z, r18
	ADMUX_Reg |= CopyChanal;
     9e4:	87 e2       	ldi	r24, 0x27	; 39
     9e6:	90 e0       	ldi	r25, 0x00	; 0
     9e8:	fc 01       	movw	r30, r24
     9ea:	30 81       	ld	r19, Z
     9ec:	87 e2       	ldi	r24, 0x27	; 39
     9ee:	90 e0       	ldi	r25, 0x00	; 0
     9f0:	2b 81       	ldd	r18, Y+3	; 0x03
     9f2:	23 2b       	or	r18, r19
     9f4:	fc 01       	movw	r30, r24
     9f6:	20 83       	st	Z, r18
	SET_BIT(ADCSRA_Reg,ADCSRA_ADSC);
     9f8:	86 e2       	ldi	r24, 0x26	; 38
     9fa:	90 e0       	ldi	r25, 0x00	; 0
     9fc:	fc 01       	movw	r30, r24
     9fe:	20 81       	ld	r18, Z
     a00:	86 e2       	ldi	r24, 0x26	; 38
     a02:	90 e0       	ldi	r25, 0x00	; 0
     a04:	20 64       	ori	r18, 0x40	; 64
     a06:	fc 01       	movw	r30, r24
     a08:	20 83       	st	Z, r18
	while((GET_BIT(ADCSRA_Reg,ADCSRA_ADSC)));
     a0a:	00 00       	nop
     a0c:	86 e2       	ldi	r24, 0x26	; 38
     a0e:	90 e0       	ldi	r25, 0x00	; 0
     a10:	fc 01       	movw	r30, r24
     a12:	80 81       	ld	r24, Z
     a14:	82 95       	swap	r24
     a16:	86 95       	lsr	r24
     a18:	86 95       	lsr	r24
     a1a:	83 70       	andi	r24, 0x03	; 3
     a1c:	88 2f       	mov	r24, r24
     a1e:	90 e0       	ldi	r25, 0x00	; 0
     a20:	81 70       	andi	r24, 0x01	; 1
     a22:	99 27       	eor	r25, r25
     a24:	89 2b       	or	r24, r25
     a26:	91 f7       	brne	.-28     	; 0xa0c <ADC_readDigitalSignal+0x4c>
	Res = ADCL_Reg;
     a28:	84 e2       	ldi	r24, 0x24	; 36
     a2a:	90 e0       	ldi	r25, 0x00	; 0
     a2c:	fc 01       	movw	r30, r24
     a2e:	80 81       	ld	r24, Z
     a30:	88 2f       	mov	r24, r24
     a32:	90 e0       	ldi	r25, 0x00	; 0
     a34:	9a 83       	std	Y+2, r25	; 0x02
     a36:	89 83       	std	Y+1, r24	; 0x01
	Res |= (ADCH_Reg << 8);
     a38:	85 e2       	ldi	r24, 0x25	; 37
     a3a:	90 e0       	ldi	r25, 0x00	; 0
     a3c:	fc 01       	movw	r30, r24
     a3e:	80 81       	ld	r24, Z
     a40:	88 2f       	mov	r24, r24
     a42:	90 e0       	ldi	r25, 0x00	; 0
     a44:	98 2f       	mov	r25, r24
     a46:	88 27       	eor	r24, r24
     a48:	9c 01       	movw	r18, r24
     a4a:	89 81       	ldd	r24, Y+1	; 0x01
     a4c:	9a 81       	ldd	r25, Y+2	; 0x02
     a4e:	82 2b       	or	r24, r18
     a50:	93 2b       	or	r25, r19
     a52:	9a 83       	std	Y+2, r25	; 0x02
     a54:	89 83       	std	Y+1, r24	; 0x01
	return Res;
     a56:	89 81       	ldd	r24, Y+1	; 0x01
     a58:	9a 81       	ldd	r25, Y+2	; 0x02
}
     a5a:	0f 90       	pop	r0
     a5c:	0f 90       	pop	r0
     a5e:	0f 90       	pop	r0
     a60:	df 91       	pop	r29
     a62:	cf 91       	pop	r28
     a64:	08 95       	ret

00000a66 <ADC_Enable>:

/**
  * @brief  : Enable ADC
  */
void ADC_Enable(void)
{
     a66:	cf 93       	push	r28
     a68:	df 93       	push	r29
     a6a:	cd b7       	in	r28, 0x3d	; 61
     a6c:	de b7       	in	r29, 0x3e	; 62
	SET_BIT(ADCSRA_Reg,ADCSRA_ADEN);
     a6e:	86 e2       	ldi	r24, 0x26	; 38
     a70:	90 e0       	ldi	r25, 0x00	; 0
     a72:	fc 01       	movw	r30, r24
     a74:	20 81       	ld	r18, Z
     a76:	86 e2       	ldi	r24, 0x26	; 38
     a78:	90 e0       	ldi	r25, 0x00	; 0
     a7a:	20 68       	ori	r18, 0x80	; 128
     a7c:	fc 01       	movw	r30, r24
     a7e:	20 83       	st	Z, r18
}
     a80:	00 00       	nop
     a82:	df 91       	pop	r29
     a84:	cf 91       	pop	r28
     a86:	08 95       	ret

00000a88 <ADC_Disable>:

/**
  * @brief  : Disable ADC
  */
void ADC_Disable(void)
{
     a88:	cf 93       	push	r28
     a8a:	df 93       	push	r29
     a8c:	cd b7       	in	r28, 0x3d	; 61
     a8e:	de b7       	in	r29, 0x3e	; 62
	CLR_BIT(ADCSRA_Reg,ADCSRA_ADEN);
     a90:	86 e2       	ldi	r24, 0x26	; 38
     a92:	90 e0       	ldi	r25, 0x00	; 0
     a94:	fc 01       	movw	r30, r24
     a96:	20 81       	ld	r18, Z
     a98:	86 e2       	ldi	r24, 0x26	; 38
     a9a:	90 e0       	ldi	r25, 0x00	; 0
     a9c:	2f 77       	andi	r18, 0x7F	; 127
     a9e:	fc 01       	movw	r30, r24
     aa0:	20 83       	st	Z, r18
}
     aa2:	00 00       	nop
     aa4:	df 91       	pop	r29
     aa6:	cf 91       	pop	r28
     aa8:	08 95       	ret

00000aaa <ADC_EnableINT>:

/**
  * @brief  : Enable Interrupt of ADC
  */
void ADC_EnableINT(void)
{
     aaa:	cf 93       	push	r28
     aac:	df 93       	push	r29
     aae:	cd b7       	in	r28, 0x3d	; 61
     ab0:	de b7       	in	r29, 0x3e	; 62
	SET_BIT(SREG_Reg , GIE);
     ab2:	8f e5       	ldi	r24, 0x5F	; 95
     ab4:	90 e0       	ldi	r25, 0x00	; 0
     ab6:	fc 01       	movw	r30, r24
     ab8:	20 81       	ld	r18, Z
     aba:	8f e5       	ldi	r24, 0x5F	; 95
     abc:	90 e0       	ldi	r25, 0x00	; 0
     abe:	20 68       	ori	r18, 0x80	; 128
     ac0:	fc 01       	movw	r30, r24
     ac2:	20 83       	st	Z, r18
	SET_BIT(ADCSRA_Reg, ADCSRA_ADIE);
     ac4:	86 e2       	ldi	r24, 0x26	; 38
     ac6:	90 e0       	ldi	r25, 0x00	; 0
     ac8:	fc 01       	movw	r30, r24
     aca:	20 81       	ld	r18, Z
     acc:	86 e2       	ldi	r24, 0x26	; 38
     ace:	90 e0       	ldi	r25, 0x00	; 0
     ad0:	28 60       	ori	r18, 0x08	; 8
     ad2:	fc 01       	movw	r30, r24
     ad4:	20 83       	st	Z, r18
}
     ad6:	00 00       	nop
     ad8:	df 91       	pop	r29
     ada:	cf 91       	pop	r28
     adc:	08 95       	ret

00000ade <ADC_DisableINT>:

/**
  * @brief  : Disable Interrupt of ADC
  */
void ADC_DisableINT(void)
{
     ade:	cf 93       	push	r28
     ae0:	df 93       	push	r29
     ae2:	cd b7       	in	r28, 0x3d	; 61
     ae4:	de b7       	in	r29, 0x3e	; 62
	CLR_BIT(ADCSRA_Reg, ADCSRA_ADIE);
     ae6:	86 e2       	ldi	r24, 0x26	; 38
     ae8:	90 e0       	ldi	r25, 0x00	; 0
     aea:	fc 01       	movw	r30, r24
     aec:	20 81       	ld	r18, Z
     aee:	86 e2       	ldi	r24, 0x26	; 38
     af0:	90 e0       	ldi	r25, 0x00	; 0
     af2:	27 7f       	andi	r18, 0xF7	; 247
     af4:	fc 01       	movw	r30, r24
     af6:	20 83       	st	Z, r18
}
     af8:	00 00       	nop
     afa:	df 91       	pop	r29
     afc:	cf 91       	pop	r28
     afe:	08 95       	ret

00000b00 <ADC_CLRflag>:

/**
  * @brief  : Clear The ADCSRA_ADIF Bit
  */
void ADC_CLRflag(void)
{
     b00:	cf 93       	push	r28
     b02:	df 93       	push	r29
     b04:	cd b7       	in	r28, 0x3d	; 61
     b06:	de b7       	in	r29, 0x3e	; 62
	CLR_BIT(ADCSRA_Reg , ADCSRA_ADIF);
     b08:	86 e2       	ldi	r24, 0x26	; 38
     b0a:	90 e0       	ldi	r25, 0x00	; 0
     b0c:	fc 01       	movw	r30, r24
     b0e:	20 81       	ld	r18, Z
     b10:	86 e2       	ldi	r24, 0x26	; 38
     b12:	90 e0       	ldi	r25, 0x00	; 0
     b14:	2f 7e       	andi	r18, 0xEF	; 239
     b16:	fc 01       	movw	r30, r24
     b18:	20 83       	st	Z, r18
}
     b1a:	00 00       	nop
     b1c:	df 91       	pop	r29
     b1e:	cf 91       	pop	r28
     b20:	08 95       	ret

00000b22 <LCD_4_INIT>:
/**
  * @brief  : Initialization Lcd 4 Bit Mode
  * @param  : CopyLCD
  */
void LCD_4_INIT(LCD_4_MODE CopyLCD)
{
     b22:	cf 93       	push	r28
     b24:	df 93       	push	r29
     b26:	cd b7       	in	r28, 0x3d	; 61
     b28:	de b7       	in	r29, 0x3e	; 62
     b2a:	c3 54       	subi	r28, 0x43	; 67
     b2c:	d1 09       	sbc	r29, r1
     b2e:	0f b6       	in	r0, 0x3f	; 63
     b30:	f8 94       	cli
     b32:	de bf       	out	0x3e, r29	; 62
     b34:	0f be       	out	0x3f, r0	; 63
     b36:	cd bf       	out	0x3d, r28	; 61
     b38:	4e af       	std	Y+62, r20	; 0x3e
     b3a:	5f af       	std	Y+63, r21	; 0x3f
     b3c:	9e 01       	movw	r18, r28
     b3e:	20 5c       	subi	r18, 0xC0	; 192
     b40:	3f 4f       	sbci	r19, 0xFF	; 255
     b42:	f9 01       	movw	r30, r18
     b44:	60 83       	st	Z, r22
     b46:	9e 01       	movw	r18, r28
     b48:	2f 5b       	subi	r18, 0xBF	; 191
     b4a:	3f 4f       	sbci	r19, 0xFF	; 255
     b4c:	f9 01       	movw	r30, r18
     b4e:	70 83       	st	Z, r23
     b50:	9e 01       	movw	r18, r28
     b52:	2e 5b       	subi	r18, 0xBE	; 190
     b54:	3f 4f       	sbci	r19, 0xFF	; 255
     b56:	f9 01       	movw	r30, r18
     b58:	80 83       	st	Z, r24
     b5a:	9e 01       	movw	r18, r28
     b5c:	2d 5b       	subi	r18, 0xBD	; 189
     b5e:	3f 4f       	sbci	r19, 0xFF	; 255
     b60:	f9 01       	movw	r30, r18
     b62:	90 83       	st	Z, r25
	u8 Counter = Initial_Counter;
     b64:	19 82       	std	Y+1, r1	; 0x01

	Dio_setPinDir(CopyLCD.E, Direction_Pin_Output);
     b66:	8f ad       	ldd	r24, Y+63	; 0x3f
     b68:	61 e0       	ldi	r22, 0x01	; 1
     b6a:	0e 94 b4 01 	call	0x368	; 0x368 <Dio_setPinDir>
	Dio_setPinDir(CopyLCD.RS, Direction_Pin_Output);
     b6e:	8e ad       	ldd	r24, Y+62	; 0x3e
     b70:	61 e0       	ldi	r22, 0x01	; 1
     b72:	0e 94 b4 01 	call	0x368	; 0x368 <Dio_setPinDir>

	for (Counter = Initial_Counter;  Counter < 4; Counter++)
     b76:	19 82       	std	Y+1, r1	; 0x01
     b78:	10 c0       	rjmp	.+32     	; 0xb9a <LCD_4_INIT+0x78>
	{
		Dio_setPinDir(CopyLCD.Port[Counter], Direction_Pin_Output);
     b7a:	89 81       	ldd	r24, Y+1	; 0x01
     b7c:	88 2f       	mov	r24, r24
     b7e:	90 e0       	ldi	r25, 0x00	; 0
     b80:	9e 01       	movw	r18, r28
     b82:	20 5c       	subi	r18, 0xC0	; 192
     b84:	3f 4f       	sbci	r19, 0xFF	; 255
     b86:	82 0f       	add	r24, r18
     b88:	93 1f       	adc	r25, r19
     b8a:	fc 01       	movw	r30, r24
     b8c:	80 81       	ld	r24, Z
     b8e:	61 e0       	ldi	r22, 0x01	; 1
     b90:	0e 94 b4 01 	call	0x368	; 0x368 <Dio_setPinDir>
	u8 Counter = Initial_Counter;

	Dio_setPinDir(CopyLCD.E, Direction_Pin_Output);
	Dio_setPinDir(CopyLCD.RS, Direction_Pin_Output);

	for (Counter = Initial_Counter;  Counter < 4; Counter++)
     b94:	89 81       	ldd	r24, Y+1	; 0x01
     b96:	8f 5f       	subi	r24, 0xFF	; 255
     b98:	89 83       	std	Y+1, r24	; 0x01
     b9a:	89 81       	ldd	r24, Y+1	; 0x01
     b9c:	84 30       	cpi	r24, 0x04	; 4
     b9e:	68 f3       	brcs	.-38     	; 0xb7a <LCD_4_INIT+0x58>
     ba0:	80 e0       	ldi	r24, 0x00	; 0
     ba2:	90 e0       	ldi	r25, 0x00	; 0
     ba4:	a0 ea       	ldi	r26, 0xA0	; 160
     ba6:	b1 e4       	ldi	r27, 0x41	; 65
     ba8:	88 ab       	std	Y+48, r24	; 0x30
     baa:	99 ab       	std	Y+49, r25	; 0x31
     bac:	aa ab       	std	Y+50, r26	; 0x32
     bae:	bb ab       	std	Y+51, r27	; 0x33

	__builtin_avr_delay_cycles(__ticks_dc);

#else
	uint16_t __ticks;
	__tmp = ((F_CPU) / 4e3) * __ms;
     bb0:	20 e0       	ldi	r18, 0x00	; 0
     bb2:	30 e0       	ldi	r19, 0x00	; 0
     bb4:	4a e7       	ldi	r20, 0x7A	; 122
     bb6:	53 e4       	ldi	r21, 0x43	; 67
     bb8:	68 a9       	ldd	r22, Y+48	; 0x30
     bba:	79 a9       	ldd	r23, Y+49	; 0x31
     bbc:	8a a9       	ldd	r24, Y+50	; 0x32
     bbe:	9b a9       	ldd	r25, Y+51	; 0x33
     bc0:	0e 94 46 11 	call	0x228c	; 0x228c <__mulsf3>
     bc4:	dc 01       	movw	r26, r24
     bc6:	cb 01       	movw	r24, r22
     bc8:	8c ab       	std	Y+52, r24	; 0x34
     bca:	9d ab       	std	Y+53, r25	; 0x35
     bcc:	ae ab       	std	Y+54, r26	; 0x36
     bce:	bf ab       	std	Y+55, r27	; 0x37
	if (__tmp < 1.0)
     bd0:	20 e0       	ldi	r18, 0x00	; 0
     bd2:	30 e0       	ldi	r19, 0x00	; 0
     bd4:	40 e8       	ldi	r20, 0x80	; 128
     bd6:	5f e3       	ldi	r21, 0x3F	; 63
     bd8:	6c a9       	ldd	r22, Y+52	; 0x34
     bda:	7d a9       	ldd	r23, Y+53	; 0x35
     bdc:	8e a9       	ldd	r24, Y+54	; 0x36
     bde:	9f a9       	ldd	r25, Y+55	; 0x37
     be0:	0e 94 26 10 	call	0x204c	; 0x204c <__cmpsf2>
     be4:	88 23       	and	r24, r24
     be6:	2c f4       	brge	.+10     	; 0xbf2 <LCD_4_INIT+0xd0>
		__ticks = 1;
     be8:	81 e0       	ldi	r24, 0x01	; 1
     bea:	90 e0       	ldi	r25, 0x00	; 0
     bec:	99 af       	std	Y+57, r25	; 0x39
     bee:	88 af       	std	Y+56, r24	; 0x38
     bf0:	3f c0       	rjmp	.+126    	; 0xc70 <LCD_4_INIT+0x14e>
	else if (__tmp > 65535)
     bf2:	20 e0       	ldi	r18, 0x00	; 0
     bf4:	3f ef       	ldi	r19, 0xFF	; 255
     bf6:	4f e7       	ldi	r20, 0x7F	; 127
     bf8:	57 e4       	ldi	r21, 0x47	; 71
     bfa:	6c a9       	ldd	r22, Y+52	; 0x34
     bfc:	7d a9       	ldd	r23, Y+53	; 0x35
     bfe:	8e a9       	ldd	r24, Y+54	; 0x36
     c00:	9f a9       	ldd	r25, Y+55	; 0x37
     c02:	0e 94 41 11 	call	0x2282	; 0x2282 <__gesf2>
     c06:	18 16       	cp	r1, r24
     c08:	4c f5       	brge	.+82     	; 0xc5c <LCD_4_INIT+0x13a>
	{
		//	__ticks = requested delay in 1/10 ms
		__ticks = (uint16_t) (__ms * 10.0);
     c0a:	20 e0       	ldi	r18, 0x00	; 0
     c0c:	30 e0       	ldi	r19, 0x00	; 0
     c0e:	40 e2       	ldi	r20, 0x20	; 32
     c10:	51 e4       	ldi	r21, 0x41	; 65
     c12:	68 a9       	ldd	r22, Y+48	; 0x30
     c14:	79 a9       	ldd	r23, Y+49	; 0x31
     c16:	8a a9       	ldd	r24, Y+50	; 0x32
     c18:	9b a9       	ldd	r25, Y+51	; 0x33
     c1a:	0e 94 46 11 	call	0x228c	; 0x228c <__mulsf3>
     c1e:	dc 01       	movw	r26, r24
     c20:	cb 01       	movw	r24, r22
     c22:	bc 01       	movw	r22, r24
     c24:	cd 01       	movw	r24, r26
     c26:	0e 94 9d 10 	call	0x213a	; 0x213a <__fixunssfsi>
     c2a:	dc 01       	movw	r26, r24
     c2c:	cb 01       	movw	r24, r22
     c2e:	99 af       	std	Y+57, r25	; 0x39
     c30:	88 af       	std	Y+56, r24	; 0x38
     c32:	0f c0       	rjmp	.+30     	; 0xc52 <LCD_4_INIT+0x130>
     c34:	89 e1       	ldi	r24, 0x19	; 25
     c36:	90 e0       	ldi	r25, 0x00	; 0
     c38:	9b af       	std	Y+59, r25	; 0x3b
     c3a:	8a af       	std	Y+58, r24	; 0x3a
    milliseconds can be achieved.
 */
void
_delay_loop_2(uint16_t __count)
{
	__asm__ volatile (
     c3c:	8a ad       	ldd	r24, Y+58	; 0x3a
     c3e:	9b ad       	ldd	r25, Y+59	; 0x3b
     c40:	01 97       	sbiw	r24, 0x01	; 1
     c42:	f1 f7       	brne	.-4      	; 0xc40 <LCD_4_INIT+0x11e>
     c44:	9b af       	std	Y+59, r25	; 0x3b
     c46:	8a af       	std	Y+58, r24	; 0x3a
		while(__ticks)
		{
			// wait 1/10 ms
			_delay_loop_2(((F_CPU) / 4e3) / 10);
			__ticks --;
     c48:	88 ad       	ldd	r24, Y+56	; 0x38
     c4a:	99 ad       	ldd	r25, Y+57	; 0x39
     c4c:	01 97       	sbiw	r24, 0x01	; 1
     c4e:	99 af       	std	Y+57, r25	; 0x39
     c50:	88 af       	std	Y+56, r24	; 0x38
		__ticks = 1;
	else if (__tmp > 65535)
	{
		//	__ticks = requested delay in 1/10 ms
		__ticks = (uint16_t) (__ms * 10.0);
		while(__ticks)
     c52:	88 ad       	ldd	r24, Y+56	; 0x38
     c54:	99 ad       	ldd	r25, Y+57	; 0x39
     c56:	89 2b       	or	r24, r25
     c58:	69 f7       	brne	.-38     	; 0xc34 <LCD_4_INIT+0x112>
     c5a:	14 c0       	rjmp	.+40     	; 0xc84 <LCD_4_INIT+0x162>
			__ticks --;
		}
		return;
	}
	else
		__ticks = (uint16_t)__tmp;
     c5c:	6c a9       	ldd	r22, Y+52	; 0x34
     c5e:	7d a9       	ldd	r23, Y+53	; 0x35
     c60:	8e a9       	ldd	r24, Y+54	; 0x36
     c62:	9f a9       	ldd	r25, Y+55	; 0x37
     c64:	0e 94 9d 10 	call	0x213a	; 0x213a <__fixunssfsi>
     c68:	dc 01       	movw	r26, r24
     c6a:	cb 01       	movw	r24, r22
     c6c:	99 af       	std	Y+57, r25	; 0x39
     c6e:	88 af       	std	Y+56, r24	; 0x38
     c70:	88 ad       	ldd	r24, Y+56	; 0x38
     c72:	99 ad       	ldd	r25, Y+57	; 0x39
     c74:	9d af       	std	Y+61, r25	; 0x3d
     c76:	8c af       	std	Y+60, r24	; 0x3c
     c78:	8c ad       	ldd	r24, Y+60	; 0x3c
     c7a:	9d ad       	ldd	r25, Y+61	; 0x3d
     c7c:	01 97       	sbiw	r24, 0x01	; 1
     c7e:	f1 f7       	brne	.-4      	; 0xc7c <LCD_4_INIT+0x15a>
     c80:	9d af       	std	Y+61, r25	; 0x3d
     c82:	8c af       	std	Y+60, r24	; 0x3c
	{
		Dio_setPinDir(CopyLCD.Port[Counter], Direction_Pin_Output);
	}
	_delay_ms(20);
	LCD_4_CMD_Write(CopyLCD, _LCD_8_Bit_Mode);
     c84:	28 e3       	ldi	r18, 0x38	; 56
     c86:	4e ad       	ldd	r20, Y+62	; 0x3e
     c88:	5f ad       	ldd	r21, Y+63	; 0x3f
     c8a:	ce 01       	movw	r24, r28
     c8c:	80 5c       	subi	r24, 0xC0	; 192
     c8e:	9f 4f       	sbci	r25, 0xFF	; 255
     c90:	fc 01       	movw	r30, r24
     c92:	60 81       	ld	r22, Z
     c94:	ce 01       	movw	r24, r28
     c96:	8f 5b       	subi	r24, 0xBF	; 191
     c98:	9f 4f       	sbci	r25, 0xFF	; 255
     c9a:	fc 01       	movw	r30, r24
     c9c:	70 81       	ld	r23, Z
     c9e:	ce 01       	movw	r24, r28
     ca0:	8e 5b       	subi	r24, 0xBE	; 190
     ca2:	9f 4f       	sbci	r25, 0xFF	; 255
     ca4:	fc 01       	movw	r30, r24
     ca6:	80 81       	ld	r24, Z
     ca8:	fe 01       	movw	r30, r28
     caa:	ed 5b       	subi	r30, 0xBD	; 189
     cac:	ff 4f       	sbci	r31, 0xFF	; 255
     cae:	90 81       	ld	r25, Z
     cb0:	0e 94 86 08 	call	0x110c	; 0x110c <LCD_4_CMD_Write>
     cb4:	80 e0       	ldi	r24, 0x00	; 0
     cb6:	90 e0       	ldi	r25, 0x00	; 0
     cb8:	a0 ea       	ldi	r26, 0xA0	; 160
     cba:	b0 e4       	ldi	r27, 0x40	; 64
     cbc:	8a a3       	std	Y+34, r24	; 0x22
     cbe:	9b a3       	std	Y+35, r25	; 0x23
     cc0:	ac a3       	std	Y+36, r26	; 0x24
     cc2:	bd a3       	std	Y+37, r27	; 0x25

	__builtin_avr_delay_cycles(__ticks_dc);

#else
	uint16_t __ticks;
	__tmp = ((F_CPU) / 4e3) * __ms;
     cc4:	20 e0       	ldi	r18, 0x00	; 0
     cc6:	30 e0       	ldi	r19, 0x00	; 0
     cc8:	4a e7       	ldi	r20, 0x7A	; 122
     cca:	53 e4       	ldi	r21, 0x43	; 67
     ccc:	6a a1       	ldd	r22, Y+34	; 0x22
     cce:	7b a1       	ldd	r23, Y+35	; 0x23
     cd0:	8c a1       	ldd	r24, Y+36	; 0x24
     cd2:	9d a1       	ldd	r25, Y+37	; 0x25
     cd4:	0e 94 46 11 	call	0x228c	; 0x228c <__mulsf3>
     cd8:	dc 01       	movw	r26, r24
     cda:	cb 01       	movw	r24, r22
     cdc:	8e a3       	std	Y+38, r24	; 0x26
     cde:	9f a3       	std	Y+39, r25	; 0x27
     ce0:	a8 a7       	std	Y+40, r26	; 0x28
     ce2:	b9 a7       	std	Y+41, r27	; 0x29
	if (__tmp < 1.0)
     ce4:	20 e0       	ldi	r18, 0x00	; 0
     ce6:	30 e0       	ldi	r19, 0x00	; 0
     ce8:	40 e8       	ldi	r20, 0x80	; 128
     cea:	5f e3       	ldi	r21, 0x3F	; 63
     cec:	6e a1       	ldd	r22, Y+38	; 0x26
     cee:	7f a1       	ldd	r23, Y+39	; 0x27
     cf0:	88 a5       	ldd	r24, Y+40	; 0x28
     cf2:	99 a5       	ldd	r25, Y+41	; 0x29
     cf4:	0e 94 26 10 	call	0x204c	; 0x204c <__cmpsf2>
     cf8:	88 23       	and	r24, r24
     cfa:	2c f4       	brge	.+10     	; 0xd06 <LCD_4_INIT+0x1e4>
		__ticks = 1;
     cfc:	81 e0       	ldi	r24, 0x01	; 1
     cfe:	90 e0       	ldi	r25, 0x00	; 0
     d00:	9b a7       	std	Y+43, r25	; 0x2b
     d02:	8a a7       	std	Y+42, r24	; 0x2a
     d04:	3f c0       	rjmp	.+126    	; 0xd84 <LCD_4_INIT+0x262>
	else if (__tmp > 65535)
     d06:	20 e0       	ldi	r18, 0x00	; 0
     d08:	3f ef       	ldi	r19, 0xFF	; 255
     d0a:	4f e7       	ldi	r20, 0x7F	; 127
     d0c:	57 e4       	ldi	r21, 0x47	; 71
     d0e:	6e a1       	ldd	r22, Y+38	; 0x26
     d10:	7f a1       	ldd	r23, Y+39	; 0x27
     d12:	88 a5       	ldd	r24, Y+40	; 0x28
     d14:	99 a5       	ldd	r25, Y+41	; 0x29
     d16:	0e 94 41 11 	call	0x2282	; 0x2282 <__gesf2>
     d1a:	18 16       	cp	r1, r24
     d1c:	4c f5       	brge	.+82     	; 0xd70 <LCD_4_INIT+0x24e>
	{
		//	__ticks = requested delay in 1/10 ms
		__ticks = (uint16_t) (__ms * 10.0);
     d1e:	20 e0       	ldi	r18, 0x00	; 0
     d20:	30 e0       	ldi	r19, 0x00	; 0
     d22:	40 e2       	ldi	r20, 0x20	; 32
     d24:	51 e4       	ldi	r21, 0x41	; 65
     d26:	6a a1       	ldd	r22, Y+34	; 0x22
     d28:	7b a1       	ldd	r23, Y+35	; 0x23
     d2a:	8c a1       	ldd	r24, Y+36	; 0x24
     d2c:	9d a1       	ldd	r25, Y+37	; 0x25
     d2e:	0e 94 46 11 	call	0x228c	; 0x228c <__mulsf3>
     d32:	dc 01       	movw	r26, r24
     d34:	cb 01       	movw	r24, r22
     d36:	bc 01       	movw	r22, r24
     d38:	cd 01       	movw	r24, r26
     d3a:	0e 94 9d 10 	call	0x213a	; 0x213a <__fixunssfsi>
     d3e:	dc 01       	movw	r26, r24
     d40:	cb 01       	movw	r24, r22
     d42:	9b a7       	std	Y+43, r25	; 0x2b
     d44:	8a a7       	std	Y+42, r24	; 0x2a
     d46:	0f c0       	rjmp	.+30     	; 0xd66 <LCD_4_INIT+0x244>
     d48:	89 e1       	ldi	r24, 0x19	; 25
     d4a:	90 e0       	ldi	r25, 0x00	; 0
     d4c:	9d a7       	std	Y+45, r25	; 0x2d
     d4e:	8c a7       	std	Y+44, r24	; 0x2c
     d50:	8c a5       	ldd	r24, Y+44	; 0x2c
     d52:	9d a5       	ldd	r25, Y+45	; 0x2d
     d54:	01 97       	sbiw	r24, 0x01	; 1
     d56:	f1 f7       	brne	.-4      	; 0xd54 <LCD_4_INIT+0x232>
     d58:	9d a7       	std	Y+45, r25	; 0x2d
     d5a:	8c a7       	std	Y+44, r24	; 0x2c
		while(__ticks)
		{
			// wait 1/10 ms
			_delay_loop_2(((F_CPU) / 4e3) / 10);
			__ticks --;
     d5c:	8a a5       	ldd	r24, Y+42	; 0x2a
     d5e:	9b a5       	ldd	r25, Y+43	; 0x2b
     d60:	01 97       	sbiw	r24, 0x01	; 1
     d62:	9b a7       	std	Y+43, r25	; 0x2b
     d64:	8a a7       	std	Y+42, r24	; 0x2a
		__ticks = 1;
	else if (__tmp > 65535)
	{
		//	__ticks = requested delay in 1/10 ms
		__ticks = (uint16_t) (__ms * 10.0);
		while(__ticks)
     d66:	8a a5       	ldd	r24, Y+42	; 0x2a
     d68:	9b a5       	ldd	r25, Y+43	; 0x2b
     d6a:	89 2b       	or	r24, r25
     d6c:	69 f7       	brne	.-38     	; 0xd48 <LCD_4_INIT+0x226>
     d6e:	14 c0       	rjmp	.+40     	; 0xd98 <LCD_4_INIT+0x276>
			__ticks --;
		}
		return;
	}
	else
		__ticks = (uint16_t)__tmp;
     d70:	6e a1       	ldd	r22, Y+38	; 0x26
     d72:	7f a1       	ldd	r23, Y+39	; 0x27
     d74:	88 a5       	ldd	r24, Y+40	; 0x28
     d76:	99 a5       	ldd	r25, Y+41	; 0x29
     d78:	0e 94 9d 10 	call	0x213a	; 0x213a <__fixunssfsi>
     d7c:	dc 01       	movw	r26, r24
     d7e:	cb 01       	movw	r24, r22
     d80:	9b a7       	std	Y+43, r25	; 0x2b
     d82:	8a a7       	std	Y+42, r24	; 0x2a
     d84:	8a a5       	ldd	r24, Y+42	; 0x2a
     d86:	9b a5       	ldd	r25, Y+43	; 0x2b
     d88:	9f a7       	std	Y+47, r25	; 0x2f
     d8a:	8e a7       	std	Y+46, r24	; 0x2e
     d8c:	8e a5       	ldd	r24, Y+46	; 0x2e
     d8e:	9f a5       	ldd	r25, Y+47	; 0x2f
     d90:	01 97       	sbiw	r24, 0x01	; 1
     d92:	f1 f7       	brne	.-4      	; 0xd90 <LCD_4_INIT+0x26e>
     d94:	9f a7       	std	Y+47, r25	; 0x2f
     d96:	8e a7       	std	Y+46, r24	; 0x2e
	_delay_ms(5);
	LCD_4_CMD_Write(CopyLCD, _LCD_8_Bit_Mode);
     d98:	28 e3       	ldi	r18, 0x38	; 56
     d9a:	4e ad       	ldd	r20, Y+62	; 0x3e
     d9c:	5f ad       	ldd	r21, Y+63	; 0x3f
     d9e:	ce 01       	movw	r24, r28
     da0:	80 5c       	subi	r24, 0xC0	; 192
     da2:	9f 4f       	sbci	r25, 0xFF	; 255
     da4:	fc 01       	movw	r30, r24
     da6:	60 81       	ld	r22, Z
     da8:	ce 01       	movw	r24, r28
     daa:	8f 5b       	subi	r24, 0xBF	; 191
     dac:	9f 4f       	sbci	r25, 0xFF	; 255
     dae:	fc 01       	movw	r30, r24
     db0:	70 81       	ld	r23, Z
     db2:	ce 01       	movw	r24, r28
     db4:	8e 5b       	subi	r24, 0xBE	; 190
     db6:	9f 4f       	sbci	r25, 0xFF	; 255
     db8:	fc 01       	movw	r30, r24
     dba:	80 81       	ld	r24, Z
     dbc:	fe 01       	movw	r30, r28
     dbe:	ed 5b       	subi	r30, 0xBD	; 189
     dc0:	ff 4f       	sbci	r31, 0xFF	; 255
     dc2:	90 81       	ld	r25, Z
     dc4:	0e 94 86 08 	call	0x110c	; 0x110c <LCD_4_CMD_Write>
     dc8:	80 e0       	ldi	r24, 0x00	; 0
     dca:	90 e0       	ldi	r25, 0x00	; 0
     dcc:	a6 e1       	ldi	r26, 0x16	; 22
     dce:	b3 e4       	ldi	r27, 0x43	; 67
     dd0:	8a 83       	std	Y+2, r24	; 0x02
     dd2:	9b 83       	std	Y+3, r25	; 0x03
     dd4:	ac 83       	std	Y+4, r26	; 0x04
     dd6:	bd 83       	std	Y+5, r27	; 0x05
	__builtin_avr_delay_cycles(__ticks_dc);

#else
	uint8_t __ticks;
	double __tmp2 ;
	__tmp = ((F_CPU) / 3e6) * __us;
     dd8:	2b ea       	ldi	r18, 0xAB	; 171
     dda:	3a ea       	ldi	r19, 0xAA	; 170
     ddc:	4a ea       	ldi	r20, 0xAA	; 170
     dde:	5e e3       	ldi	r21, 0x3E	; 62
     de0:	6a 81       	ldd	r22, Y+2	; 0x02
     de2:	7b 81       	ldd	r23, Y+3	; 0x03
     de4:	8c 81       	ldd	r24, Y+4	; 0x04
     de6:	9d 81       	ldd	r25, Y+5	; 0x05
     de8:	0e 94 46 11 	call	0x228c	; 0x228c <__mulsf3>
     dec:	dc 01       	movw	r26, r24
     dee:	cb 01       	movw	r24, r22
     df0:	8e 83       	std	Y+6, r24	; 0x06
     df2:	9f 83       	std	Y+7, r25	; 0x07
     df4:	a8 87       	std	Y+8, r26	; 0x08
     df6:	b9 87       	std	Y+9, r27	; 0x09
	__tmp2 = ((F_CPU) / 4e6) * __us;
     df8:	20 e0       	ldi	r18, 0x00	; 0
     dfa:	30 e0       	ldi	r19, 0x00	; 0
     dfc:	40 e8       	ldi	r20, 0x80	; 128
     dfe:	5e e3       	ldi	r21, 0x3E	; 62
     e00:	6a 81       	ldd	r22, Y+2	; 0x02
     e02:	7b 81       	ldd	r23, Y+3	; 0x03
     e04:	8c 81       	ldd	r24, Y+4	; 0x04
     e06:	9d 81       	ldd	r25, Y+5	; 0x05
     e08:	0e 94 46 11 	call	0x228c	; 0x228c <__mulsf3>
     e0c:	dc 01       	movw	r26, r24
     e0e:	cb 01       	movw	r24, r22
     e10:	8a 87       	std	Y+10, r24	; 0x0a
     e12:	9b 87       	std	Y+11, r25	; 0x0b
     e14:	ac 87       	std	Y+12, r26	; 0x0c
     e16:	bd 87       	std	Y+13, r27	; 0x0d
	if (__tmp < 1.0)
     e18:	20 e0       	ldi	r18, 0x00	; 0
     e1a:	30 e0       	ldi	r19, 0x00	; 0
     e1c:	40 e8       	ldi	r20, 0x80	; 128
     e1e:	5f e3       	ldi	r21, 0x3F	; 63
     e20:	6e 81       	ldd	r22, Y+6	; 0x06
     e22:	7f 81       	ldd	r23, Y+7	; 0x07
     e24:	88 85       	ldd	r24, Y+8	; 0x08
     e26:	99 85       	ldd	r25, Y+9	; 0x09
     e28:	0e 94 26 10 	call	0x204c	; 0x204c <__cmpsf2>
     e2c:	88 23       	and	r24, r24
     e2e:	1c f4       	brge	.+6      	; 0xe36 <LCD_4_INIT+0x314>
		__ticks = 1;
     e30:	81 e0       	ldi	r24, 0x01	; 1
     e32:	8e 87       	std	Y+14, r24	; 0x0e
     e34:	b2 c0       	rjmp	.+356    	; 0xf9a <LCD_4_INIT+0x478>
	else if (__tmp2 > 65535)
     e36:	20 e0       	ldi	r18, 0x00	; 0
     e38:	3f ef       	ldi	r19, 0xFF	; 255
     e3a:	4f e7       	ldi	r20, 0x7F	; 127
     e3c:	57 e4       	ldi	r21, 0x47	; 71
     e3e:	6a 85       	ldd	r22, Y+10	; 0x0a
     e40:	7b 85       	ldd	r23, Y+11	; 0x0b
     e42:	8c 85       	ldd	r24, Y+12	; 0x0c
     e44:	9d 85       	ldd	r25, Y+13	; 0x0d
     e46:	0e 94 41 11 	call	0x2282	; 0x2282 <__gesf2>
     e4a:	18 16       	cp	r1, r24
     e4c:	0c f0       	brlt	.+2      	; 0xe50 <LCD_4_INIT+0x32e>
     e4e:	7b c0       	rjmp	.+246    	; 0xf46 <LCD_4_INIT+0x424>
	{
		_delay_ms(__us / 1000.0);
     e50:	20 e0       	ldi	r18, 0x00	; 0
     e52:	30 e0       	ldi	r19, 0x00	; 0
     e54:	4a e7       	ldi	r20, 0x7A	; 122
     e56:	54 e4       	ldi	r21, 0x44	; 68
     e58:	6a 81       	ldd	r22, Y+2	; 0x02
     e5a:	7b 81       	ldd	r23, Y+3	; 0x03
     e5c:	8c 81       	ldd	r24, Y+4	; 0x04
     e5e:	9d 81       	ldd	r25, Y+5	; 0x05
     e60:	0e 94 2b 10 	call	0x2056	; 0x2056 <__divsf3>
     e64:	dc 01       	movw	r26, r24
     e66:	cb 01       	movw	r24, r22
     e68:	8f 87       	std	Y+15, r24	; 0x0f
     e6a:	98 8b       	std	Y+16, r25	; 0x10
     e6c:	a9 8b       	std	Y+17, r26	; 0x11
     e6e:	ba 8b       	std	Y+18, r27	; 0x12

	__builtin_avr_delay_cycles(__ticks_dc);

#else
	uint16_t __ticks;
	__tmp = ((F_CPU) / 4e3) * __ms;
     e70:	20 e0       	ldi	r18, 0x00	; 0
     e72:	30 e0       	ldi	r19, 0x00	; 0
     e74:	4a e7       	ldi	r20, 0x7A	; 122
     e76:	53 e4       	ldi	r21, 0x43	; 67
     e78:	6f 85       	ldd	r22, Y+15	; 0x0f
     e7a:	78 89       	ldd	r23, Y+16	; 0x10
     e7c:	89 89       	ldd	r24, Y+17	; 0x11
     e7e:	9a 89       	ldd	r25, Y+18	; 0x12
     e80:	0e 94 46 11 	call	0x228c	; 0x228c <__mulsf3>
     e84:	dc 01       	movw	r26, r24
     e86:	cb 01       	movw	r24, r22
     e88:	8b 8b       	std	Y+19, r24	; 0x13
     e8a:	9c 8b       	std	Y+20, r25	; 0x14
     e8c:	ad 8b       	std	Y+21, r26	; 0x15
     e8e:	be 8b       	std	Y+22, r27	; 0x16
	if (__tmp < 1.0)
     e90:	20 e0       	ldi	r18, 0x00	; 0
     e92:	30 e0       	ldi	r19, 0x00	; 0
     e94:	40 e8       	ldi	r20, 0x80	; 128
     e96:	5f e3       	ldi	r21, 0x3F	; 63
     e98:	6b 89       	ldd	r22, Y+19	; 0x13
     e9a:	7c 89       	ldd	r23, Y+20	; 0x14
     e9c:	8d 89       	ldd	r24, Y+21	; 0x15
     e9e:	9e 89       	ldd	r25, Y+22	; 0x16
     ea0:	0e 94 26 10 	call	0x204c	; 0x204c <__cmpsf2>
     ea4:	88 23       	and	r24, r24
     ea6:	2c f4       	brge	.+10     	; 0xeb2 <LCD_4_INIT+0x390>
		__ticks = 1;
     ea8:	81 e0       	ldi	r24, 0x01	; 1
     eaa:	90 e0       	ldi	r25, 0x00	; 0
     eac:	98 8f       	std	Y+24, r25	; 0x18
     eae:	8f 8b       	std	Y+23, r24	; 0x17
     eb0:	3f c0       	rjmp	.+126    	; 0xf30 <LCD_4_INIT+0x40e>
	else if (__tmp > 65535)
     eb2:	20 e0       	ldi	r18, 0x00	; 0
     eb4:	3f ef       	ldi	r19, 0xFF	; 255
     eb6:	4f e7       	ldi	r20, 0x7F	; 127
     eb8:	57 e4       	ldi	r21, 0x47	; 71
     eba:	6b 89       	ldd	r22, Y+19	; 0x13
     ebc:	7c 89       	ldd	r23, Y+20	; 0x14
     ebe:	8d 89       	ldd	r24, Y+21	; 0x15
     ec0:	9e 89       	ldd	r25, Y+22	; 0x16
     ec2:	0e 94 41 11 	call	0x2282	; 0x2282 <__gesf2>
     ec6:	18 16       	cp	r1, r24
     ec8:	4c f5       	brge	.+82     	; 0xf1c <LCD_4_INIT+0x3fa>
	{
		//	__ticks = requested delay in 1/10 ms
		__ticks = (uint16_t) (__ms * 10.0);
     eca:	20 e0       	ldi	r18, 0x00	; 0
     ecc:	30 e0       	ldi	r19, 0x00	; 0
     ece:	40 e2       	ldi	r20, 0x20	; 32
     ed0:	51 e4       	ldi	r21, 0x41	; 65
     ed2:	6f 85       	ldd	r22, Y+15	; 0x0f
     ed4:	78 89       	ldd	r23, Y+16	; 0x10
     ed6:	89 89       	ldd	r24, Y+17	; 0x11
     ed8:	9a 89       	ldd	r25, Y+18	; 0x12
     eda:	0e 94 46 11 	call	0x228c	; 0x228c <__mulsf3>
     ede:	dc 01       	movw	r26, r24
     ee0:	cb 01       	movw	r24, r22
     ee2:	bc 01       	movw	r22, r24
     ee4:	cd 01       	movw	r24, r26
     ee6:	0e 94 9d 10 	call	0x213a	; 0x213a <__fixunssfsi>
     eea:	dc 01       	movw	r26, r24
     eec:	cb 01       	movw	r24, r22
     eee:	98 8f       	std	Y+24, r25	; 0x18
     ef0:	8f 8b       	std	Y+23, r24	; 0x17
     ef2:	0f c0       	rjmp	.+30     	; 0xf12 <LCD_4_INIT+0x3f0>
     ef4:	89 e1       	ldi	r24, 0x19	; 25
     ef6:	90 e0       	ldi	r25, 0x00	; 0
     ef8:	9a 8f       	std	Y+26, r25	; 0x1a
     efa:	89 8f       	std	Y+25, r24	; 0x19
     efc:	89 8d       	ldd	r24, Y+25	; 0x19
     efe:	9a 8d       	ldd	r25, Y+26	; 0x1a
     f00:	01 97       	sbiw	r24, 0x01	; 1
     f02:	f1 f7       	brne	.-4      	; 0xf00 <LCD_4_INIT+0x3de>
     f04:	9a 8f       	std	Y+26, r25	; 0x1a
     f06:	89 8f       	std	Y+25, r24	; 0x19
		while(__ticks)
		{
			// wait 1/10 ms
			_delay_loop_2(((F_CPU) / 4e3) / 10);
			__ticks --;
     f08:	8f 89       	ldd	r24, Y+23	; 0x17
     f0a:	98 8d       	ldd	r25, Y+24	; 0x18
     f0c:	01 97       	sbiw	r24, 0x01	; 1
     f0e:	98 8f       	std	Y+24, r25	; 0x18
     f10:	8f 8b       	std	Y+23, r24	; 0x17
		__ticks = 1;
	else if (__tmp > 65535)
	{
		//	__ticks = requested delay in 1/10 ms
		__ticks = (uint16_t) (__ms * 10.0);
		while(__ticks)
     f12:	8f 89       	ldd	r24, Y+23	; 0x17
     f14:	98 8d       	ldd	r25, Y+24	; 0x18
     f16:	89 2b       	or	r24, r25
     f18:	69 f7       	brne	.-38     	; 0xef4 <LCD_4_INIT+0x3d2>
     f1a:	3f c0       	rjmp	.+126    	; 0xf9a <LCD_4_INIT+0x478>
			__ticks --;
		}
		return;
	}
	else
		__ticks = (uint16_t)__tmp;
     f1c:	6b 89       	ldd	r22, Y+19	; 0x13
     f1e:	7c 89       	ldd	r23, Y+20	; 0x14
     f20:	8d 89       	ldd	r24, Y+21	; 0x15
     f22:	9e 89       	ldd	r25, Y+22	; 0x16
     f24:	0e 94 9d 10 	call	0x213a	; 0x213a <__fixunssfsi>
     f28:	dc 01       	movw	r26, r24
     f2a:	cb 01       	movw	r24, r22
     f2c:	98 8f       	std	Y+24, r25	; 0x18
     f2e:	8f 8b       	std	Y+23, r24	; 0x17
     f30:	8f 89       	ldd	r24, Y+23	; 0x17
     f32:	98 8d       	ldd	r25, Y+24	; 0x18
     f34:	9c 8f       	std	Y+28, r25	; 0x1c
     f36:	8b 8f       	std	Y+27, r24	; 0x1b
     f38:	8b 8d       	ldd	r24, Y+27	; 0x1b
     f3a:	9c 8d       	ldd	r25, Y+28	; 0x1c
     f3c:	01 97       	sbiw	r24, 0x01	; 1
     f3e:	f1 f7       	brne	.-4      	; 0xf3c <LCD_4_INIT+0x41a>
     f40:	9c 8f       	std	Y+28, r25	; 0x1c
     f42:	8b 8f       	std	Y+27, r24	; 0x1b
     f44:	2a c0       	rjmp	.+84     	; 0xf9a <LCD_4_INIT+0x478>
		__ticks = 1;
	else if (__tmp2 > 65535)
	{
		_delay_ms(__us / 1000.0);
	}
	else if (__tmp > 255)
     f46:	20 e0       	ldi	r18, 0x00	; 0
     f48:	30 e0       	ldi	r19, 0x00	; 0
     f4a:	4f e7       	ldi	r20, 0x7F	; 127
     f4c:	53 e4       	ldi	r21, 0x43	; 67
     f4e:	6e 81       	ldd	r22, Y+6	; 0x06
     f50:	7f 81       	ldd	r23, Y+7	; 0x07
     f52:	88 85       	ldd	r24, Y+8	; 0x08
     f54:	99 85       	ldd	r25, Y+9	; 0x09
     f56:	0e 94 41 11 	call	0x2282	; 0x2282 <__gesf2>
     f5a:	18 16       	cp	r1, r24
     f5c:	ac f4       	brge	.+42     	; 0xf88 <LCD_4_INIT+0x466>
	{
		uint16_t __ticks=(uint16_t)__tmp2;
     f5e:	6a 85       	ldd	r22, Y+10	; 0x0a
     f60:	7b 85       	ldd	r23, Y+11	; 0x0b
     f62:	8c 85       	ldd	r24, Y+12	; 0x0c
     f64:	9d 85       	ldd	r25, Y+13	; 0x0d
     f66:	0e 94 9d 10 	call	0x213a	; 0x213a <__fixunssfsi>
     f6a:	dc 01       	movw	r26, r24
     f6c:	cb 01       	movw	r24, r22
     f6e:	9e 8f       	std	Y+30, r25	; 0x1e
     f70:	8d 8f       	std	Y+29, r24	; 0x1d
     f72:	8d 8d       	ldd	r24, Y+29	; 0x1d
     f74:	9e 8d       	ldd	r25, Y+30	; 0x1e
     f76:	98 a3       	std	Y+32, r25	; 0x20
     f78:	8f 8f       	std	Y+31, r24	; 0x1f
     f7a:	8f 8d       	ldd	r24, Y+31	; 0x1f
     f7c:	98 a1       	ldd	r25, Y+32	; 0x20
     f7e:	01 97       	sbiw	r24, 0x01	; 1
     f80:	f1 f7       	brne	.-4      	; 0xf7e <LCD_4_INIT+0x45c>
     f82:	98 a3       	std	Y+32, r25	; 0x20
     f84:	8f 8f       	std	Y+31, r24	; 0x1f
     f86:	0f c0       	rjmp	.+30     	; 0xfa6 <LCD_4_INIT+0x484>
		_delay_loop_2(__ticks);
		return;
	}
	else
		__ticks = (uint8_t)__tmp;
     f88:	6e 81       	ldd	r22, Y+6	; 0x06
     f8a:	7f 81       	ldd	r23, Y+7	; 0x07
     f8c:	88 85       	ldd	r24, Y+8	; 0x08
     f8e:	99 85       	ldd	r25, Y+9	; 0x09
     f90:	0e 94 9d 10 	call	0x213a	; 0x213a <__fixunssfsi>
     f94:	dc 01       	movw	r26, r24
     f96:	cb 01       	movw	r24, r22
     f98:	8e 87       	std	Y+14, r24	; 0x0e
     f9a:	8e 85       	ldd	r24, Y+14	; 0x0e
     f9c:	89 a3       	std	Y+33, r24	; 0x21
    can be achieved.
*/
void
_delay_loop_1(uint8_t __count)
{
	__asm__ volatile (
     f9e:	89 a1       	ldd	r24, Y+33	; 0x21
     fa0:	8a 95       	dec	r24
     fa2:	f1 f7       	brne	.-4      	; 0xfa0 <LCD_4_INIT+0x47e>
     fa4:	89 a3       	std	Y+33, r24	; 0x21
	_delay_us(150);
	LCD_4_CMD_Write(CopyLCD, _LCD_8_Bit_Mode);
     fa6:	28 e3       	ldi	r18, 0x38	; 56
     fa8:	4e ad       	ldd	r20, Y+62	; 0x3e
     faa:	5f ad       	ldd	r21, Y+63	; 0x3f
     fac:	ce 01       	movw	r24, r28
     fae:	80 5c       	subi	r24, 0xC0	; 192
     fb0:	9f 4f       	sbci	r25, 0xFF	; 255
     fb2:	fc 01       	movw	r30, r24
     fb4:	60 81       	ld	r22, Z
     fb6:	ce 01       	movw	r24, r28
     fb8:	8f 5b       	subi	r24, 0xBF	; 191
     fba:	9f 4f       	sbci	r25, 0xFF	; 255
     fbc:	fc 01       	movw	r30, r24
     fbe:	70 81       	ld	r23, Z
     fc0:	ce 01       	movw	r24, r28
     fc2:	8e 5b       	subi	r24, 0xBE	; 190
     fc4:	9f 4f       	sbci	r25, 0xFF	; 255
     fc6:	fc 01       	movw	r30, r24
     fc8:	80 81       	ld	r24, Z
     fca:	fe 01       	movw	r30, r28
     fcc:	ed 5b       	subi	r30, 0xBD	; 189
     fce:	ff 4f       	sbci	r31, 0xFF	; 255
     fd0:	90 81       	ld	r25, Z
     fd2:	0e 94 86 08 	call	0x110c	; 0x110c <LCD_4_CMD_Write>
	LCD_4_CMD_Write(CopyLCD, _LCD_Clear_Dis);
     fd6:	21 e0       	ldi	r18, 0x01	; 1
     fd8:	4e ad       	ldd	r20, Y+62	; 0x3e
     fda:	5f ad       	ldd	r21, Y+63	; 0x3f
     fdc:	ce 01       	movw	r24, r28
     fde:	80 5c       	subi	r24, 0xC0	; 192
     fe0:	9f 4f       	sbci	r25, 0xFF	; 255
     fe2:	fc 01       	movw	r30, r24
     fe4:	60 81       	ld	r22, Z
     fe6:	ce 01       	movw	r24, r28
     fe8:	8f 5b       	subi	r24, 0xBF	; 191
     fea:	9f 4f       	sbci	r25, 0xFF	; 255
     fec:	fc 01       	movw	r30, r24
     fee:	70 81       	ld	r23, Z
     ff0:	ce 01       	movw	r24, r28
     ff2:	8e 5b       	subi	r24, 0xBE	; 190
     ff4:	9f 4f       	sbci	r25, 0xFF	; 255
     ff6:	fc 01       	movw	r30, r24
     ff8:	80 81       	ld	r24, Z
     ffa:	fe 01       	movw	r30, r28
     ffc:	ed 5b       	subi	r30, 0xBD	; 189
     ffe:	ff 4f       	sbci	r31, 0xFF	; 255
    1000:	90 81       	ld	r25, Z
    1002:	0e 94 86 08 	call	0x110c	; 0x110c <LCD_4_CMD_Write>
	LCD_4_CMD_Write(CopyLCD, _LCD_Return_Home);
    1006:	22 e0       	ldi	r18, 0x02	; 2
    1008:	4e ad       	ldd	r20, Y+62	; 0x3e
    100a:	5f ad       	ldd	r21, Y+63	; 0x3f
    100c:	ce 01       	movw	r24, r28
    100e:	80 5c       	subi	r24, 0xC0	; 192
    1010:	9f 4f       	sbci	r25, 0xFF	; 255
    1012:	fc 01       	movw	r30, r24
    1014:	60 81       	ld	r22, Z
    1016:	ce 01       	movw	r24, r28
    1018:	8f 5b       	subi	r24, 0xBF	; 191
    101a:	9f 4f       	sbci	r25, 0xFF	; 255
    101c:	fc 01       	movw	r30, r24
    101e:	70 81       	ld	r23, Z
    1020:	ce 01       	movw	r24, r28
    1022:	8e 5b       	subi	r24, 0xBE	; 190
    1024:	9f 4f       	sbci	r25, 0xFF	; 255
    1026:	fc 01       	movw	r30, r24
    1028:	80 81       	ld	r24, Z
    102a:	fe 01       	movw	r30, r28
    102c:	ed 5b       	subi	r30, 0xBD	; 189
    102e:	ff 4f       	sbci	r31, 0xFF	; 255
    1030:	90 81       	ld	r25, Z
    1032:	0e 94 86 08 	call	0x110c	; 0x110c <LCD_4_CMD_Write>
	LCD_4_CMD_Write(CopyLCD, _LCD_Entery_INC);
    1036:	26 e0       	ldi	r18, 0x06	; 6
    1038:	4e ad       	ldd	r20, Y+62	; 0x3e
    103a:	5f ad       	ldd	r21, Y+63	; 0x3f
    103c:	ce 01       	movw	r24, r28
    103e:	80 5c       	subi	r24, 0xC0	; 192
    1040:	9f 4f       	sbci	r25, 0xFF	; 255
    1042:	fc 01       	movw	r30, r24
    1044:	60 81       	ld	r22, Z
    1046:	ce 01       	movw	r24, r28
    1048:	8f 5b       	subi	r24, 0xBF	; 191
    104a:	9f 4f       	sbci	r25, 0xFF	; 255
    104c:	fc 01       	movw	r30, r24
    104e:	70 81       	ld	r23, Z
    1050:	ce 01       	movw	r24, r28
    1052:	8e 5b       	subi	r24, 0xBE	; 190
    1054:	9f 4f       	sbci	r25, 0xFF	; 255
    1056:	fc 01       	movw	r30, r24
    1058:	80 81       	ld	r24, Z
    105a:	fe 01       	movw	r30, r28
    105c:	ed 5b       	subi	r30, 0xBD	; 189
    105e:	ff 4f       	sbci	r31, 0xFF	; 255
    1060:	90 81       	ld	r25, Z
    1062:	0e 94 86 08 	call	0x110c	; 0x110c <LCD_4_CMD_Write>
	LCD_4_CMD_Write(CopyLCD, _LCD_Dis_ON);
    1066:	2c e0       	ldi	r18, 0x0C	; 12
    1068:	4e ad       	ldd	r20, Y+62	; 0x3e
    106a:	5f ad       	ldd	r21, Y+63	; 0x3f
    106c:	ce 01       	movw	r24, r28
    106e:	80 5c       	subi	r24, 0xC0	; 192
    1070:	9f 4f       	sbci	r25, 0xFF	; 255
    1072:	fc 01       	movw	r30, r24
    1074:	60 81       	ld	r22, Z
    1076:	ce 01       	movw	r24, r28
    1078:	8f 5b       	subi	r24, 0xBF	; 191
    107a:	9f 4f       	sbci	r25, 0xFF	; 255
    107c:	fc 01       	movw	r30, r24
    107e:	70 81       	ld	r23, Z
    1080:	ce 01       	movw	r24, r28
    1082:	8e 5b       	subi	r24, 0xBE	; 190
    1084:	9f 4f       	sbci	r25, 0xFF	; 255
    1086:	fc 01       	movw	r30, r24
    1088:	80 81       	ld	r24, Z
    108a:	fe 01       	movw	r30, r28
    108c:	ed 5b       	subi	r30, 0xBD	; 189
    108e:	ff 4f       	sbci	r31, 0xFF	; 255
    1090:	90 81       	ld	r25, Z
    1092:	0e 94 86 08 	call	0x110c	; 0x110c <LCD_4_CMD_Write>
	LCD_4_CMD_Write(CopyLCD, _LCD_4_Bit_Mode);
    1096:	28 e2       	ldi	r18, 0x28	; 40
    1098:	4e ad       	ldd	r20, Y+62	; 0x3e
    109a:	5f ad       	ldd	r21, Y+63	; 0x3f
    109c:	ce 01       	movw	r24, r28
    109e:	80 5c       	subi	r24, 0xC0	; 192
    10a0:	9f 4f       	sbci	r25, 0xFF	; 255
    10a2:	fc 01       	movw	r30, r24
    10a4:	60 81       	ld	r22, Z
    10a6:	ce 01       	movw	r24, r28
    10a8:	8f 5b       	subi	r24, 0xBF	; 191
    10aa:	9f 4f       	sbci	r25, 0xFF	; 255
    10ac:	fc 01       	movw	r30, r24
    10ae:	70 81       	ld	r23, Z
    10b0:	ce 01       	movw	r24, r28
    10b2:	8e 5b       	subi	r24, 0xBE	; 190
    10b4:	9f 4f       	sbci	r25, 0xFF	; 255
    10b6:	fc 01       	movw	r30, r24
    10b8:	80 81       	ld	r24, Z
    10ba:	fe 01       	movw	r30, r28
    10bc:	ed 5b       	subi	r30, 0xBD	; 189
    10be:	ff 4f       	sbci	r31, 0xFF	; 255
    10c0:	90 81       	ld	r25, Z
    10c2:	0e 94 86 08 	call	0x110c	; 0x110c <LCD_4_CMD_Write>
	LCD_4_CMD_Write(CopyLCD, 0x80);
    10c6:	20 e8       	ldi	r18, 0x80	; 128
    10c8:	4e ad       	ldd	r20, Y+62	; 0x3e
    10ca:	5f ad       	ldd	r21, Y+63	; 0x3f
    10cc:	ce 01       	movw	r24, r28
    10ce:	80 5c       	subi	r24, 0xC0	; 192
    10d0:	9f 4f       	sbci	r25, 0xFF	; 255
    10d2:	fc 01       	movw	r30, r24
    10d4:	60 81       	ld	r22, Z
    10d6:	ce 01       	movw	r24, r28
    10d8:	8f 5b       	subi	r24, 0xBF	; 191
    10da:	9f 4f       	sbci	r25, 0xFF	; 255
    10dc:	fc 01       	movw	r30, r24
    10de:	70 81       	ld	r23, Z
    10e0:	ce 01       	movw	r24, r28
    10e2:	8e 5b       	subi	r24, 0xBE	; 190
    10e4:	9f 4f       	sbci	r25, 0xFF	; 255
    10e6:	fc 01       	movw	r30, r24
    10e8:	80 81       	ld	r24, Z
    10ea:	fe 01       	movw	r30, r28
    10ec:	ed 5b       	subi	r30, 0xBD	; 189
    10ee:	ff 4f       	sbci	r31, 0xFF	; 255
    10f0:	90 81       	ld	r25, Z
    10f2:	0e 94 86 08 	call	0x110c	; 0x110c <LCD_4_CMD_Write>
}
    10f6:	00 00       	nop
    10f8:	cd 5b       	subi	r28, 0xBD	; 189
    10fa:	df 4f       	sbci	r29, 0xFF	; 255
    10fc:	0f b6       	in	r0, 0x3f	; 63
    10fe:	f8 94       	cli
    1100:	de bf       	out	0x3e, r29	; 62
    1102:	0f be       	out	0x3f, r0	; 63
    1104:	cd bf       	out	0x3d, r28	; 61
    1106:	df 91       	pop	r29
    1108:	cf 91       	pop	r28
    110a:	08 95       	ret

0000110c <LCD_4_CMD_Write>:
  * @brief  : Write Command in Lcd 4 Bit Mode
  * @param  : CopyLCD
  * @param  : CopyCMD
  */
void LCD_4_CMD_Write(LCD_4_MODE CopyLCD , u8 CopyCMD)
{
    110c:	cf 93       	push	r28
    110e:	df 93       	push	r29
    1110:	00 d0       	rcall	.+0      	; 0x1112 <LCD_4_CMD_Write+0x6>
    1112:	00 d0       	rcall	.+0      	; 0x1114 <LCD_4_CMD_Write+0x8>
    1114:	00 d0       	rcall	.+0      	; 0x1116 <LCD_4_CMD_Write+0xa>
    1116:	1f 92       	push	r1
    1118:	cd b7       	in	r28, 0x3d	; 61
    111a:	de b7       	in	r29, 0x3e	; 62
    111c:	49 83       	std	Y+1, r20	; 0x01
    111e:	5a 83       	std	Y+2, r21	; 0x02
    1120:	6b 83       	std	Y+3, r22	; 0x03
    1122:	7c 83       	std	Y+4, r23	; 0x04
    1124:	8d 83       	std	Y+5, r24	; 0x05
    1126:	9e 83       	std	Y+6, r25	; 0x06
    1128:	2f 83       	std	Y+7, r18	; 0x07
	Dio_setPinVal(CopyLCD.RS , Status_Pin_Low);
    112a:	89 81       	ldd	r24, Y+1	; 0x01
    112c:	60 e0       	ldi	r22, 0x00	; 0
    112e:	0e 94 28 02 	call	0x450	; 0x450 <Dio_setPinVal>
	LCD_4_GetData(CopyLCD,CopyCMD >> 4);
    1132:	8f 81       	ldd	r24, Y+7	; 0x07
    1134:	82 95       	swap	r24
    1136:	8f 70       	andi	r24, 0x0F	; 15
    1138:	28 2f       	mov	r18, r24
    113a:	49 81       	ldd	r20, Y+1	; 0x01
    113c:	5a 81       	ldd	r21, Y+2	; 0x02
    113e:	6b 81       	ldd	r22, Y+3	; 0x03
    1140:	7c 81       	ldd	r23, Y+4	; 0x04
    1142:	8d 81       	ldd	r24, Y+5	; 0x05
    1144:	9e 81       	ldd	r25, Y+6	; 0x06
    1146:	0e 94 58 0a 	call	0x14b0	; 0x14b0 <LCD_4_GetData>
	LCD_4_SendEnable_Signal(CopyLCD);
    114a:	49 81       	ldd	r20, Y+1	; 0x01
    114c:	5a 81       	ldd	r21, Y+2	; 0x02
    114e:	6b 81       	ldd	r22, Y+3	; 0x03
    1150:	7c 81       	ldd	r23, Y+4	; 0x04
    1152:	8d 81       	ldd	r24, Y+5	; 0x05
    1154:	9e 81       	ldd	r25, Y+6	; 0x06
    1156:	0e 94 93 0a 	call	0x1526	; 0x1526 <LCD_4_SendEnable_Signal>
	LCD_4_GetData(CopyLCD,CopyCMD);
    115a:	2f 81       	ldd	r18, Y+7	; 0x07
    115c:	49 81       	ldd	r20, Y+1	; 0x01
    115e:	5a 81       	ldd	r21, Y+2	; 0x02
    1160:	6b 81       	ldd	r22, Y+3	; 0x03
    1162:	7c 81       	ldd	r23, Y+4	; 0x04
    1164:	8d 81       	ldd	r24, Y+5	; 0x05
    1166:	9e 81       	ldd	r25, Y+6	; 0x06
    1168:	0e 94 58 0a 	call	0x14b0	; 0x14b0 <LCD_4_GetData>
	LCD_4_SendEnable_Signal(CopyLCD);
    116c:	49 81       	ldd	r20, Y+1	; 0x01
    116e:	5a 81       	ldd	r21, Y+2	; 0x02
    1170:	6b 81       	ldd	r22, Y+3	; 0x03
    1172:	7c 81       	ldd	r23, Y+4	; 0x04
    1174:	8d 81       	ldd	r24, Y+5	; 0x05
    1176:	9e 81       	ldd	r25, Y+6	; 0x06
    1178:	0e 94 93 0a 	call	0x1526	; 0x1526 <LCD_4_SendEnable_Signal>
}
    117c:	00 00       	nop
    117e:	27 96       	adiw	r28, 0x07	; 7
    1180:	0f b6       	in	r0, 0x3f	; 63
    1182:	f8 94       	cli
    1184:	de bf       	out	0x3e, r29	; 62
    1186:	0f be       	out	0x3f, r0	; 63
    1188:	cd bf       	out	0x3d, r28	; 61
    118a:	df 91       	pop	r29
    118c:	cf 91       	pop	r28
    118e:	08 95       	ret

00001190 <LCD_4_Char_Write>:
  * @brief  : Write Character in first address in Lcd 4 Bit Mode
  * @param  : CopyLCD
  * @param  : CopyChar
  */
void LCD_4_Char_Write(LCD_4_MODE CopyLCD , u8 CopyChar)
{
    1190:	cf 93       	push	r28
    1192:	df 93       	push	r29
    1194:	00 d0       	rcall	.+0      	; 0x1196 <LCD_4_Char_Write+0x6>
    1196:	00 d0       	rcall	.+0      	; 0x1198 <LCD_4_Char_Write+0x8>
    1198:	00 d0       	rcall	.+0      	; 0x119a <LCD_4_Char_Write+0xa>
    119a:	1f 92       	push	r1
    119c:	cd b7       	in	r28, 0x3d	; 61
    119e:	de b7       	in	r29, 0x3e	; 62
    11a0:	49 83       	std	Y+1, r20	; 0x01
    11a2:	5a 83       	std	Y+2, r21	; 0x02
    11a4:	6b 83       	std	Y+3, r22	; 0x03
    11a6:	7c 83       	std	Y+4, r23	; 0x04
    11a8:	8d 83       	std	Y+5, r24	; 0x05
    11aa:	9e 83       	std	Y+6, r25	; 0x06
    11ac:	2f 83       	std	Y+7, r18	; 0x07
	Dio_setPinVal(CopyLCD.RS , Status_Pin_High);
    11ae:	89 81       	ldd	r24, Y+1	; 0x01
    11b0:	61 e0       	ldi	r22, 0x01	; 1
    11b2:	0e 94 28 02 	call	0x450	; 0x450 <Dio_setPinVal>
	LCD_4_GetData(CopyLCD,CopyChar >> 4);
    11b6:	8f 81       	ldd	r24, Y+7	; 0x07
    11b8:	82 95       	swap	r24
    11ba:	8f 70       	andi	r24, 0x0F	; 15
    11bc:	28 2f       	mov	r18, r24
    11be:	49 81       	ldd	r20, Y+1	; 0x01
    11c0:	5a 81       	ldd	r21, Y+2	; 0x02
    11c2:	6b 81       	ldd	r22, Y+3	; 0x03
    11c4:	7c 81       	ldd	r23, Y+4	; 0x04
    11c6:	8d 81       	ldd	r24, Y+5	; 0x05
    11c8:	9e 81       	ldd	r25, Y+6	; 0x06
    11ca:	0e 94 58 0a 	call	0x14b0	; 0x14b0 <LCD_4_GetData>
	LCD_4_SendEnable_Signal(CopyLCD);
    11ce:	49 81       	ldd	r20, Y+1	; 0x01
    11d0:	5a 81       	ldd	r21, Y+2	; 0x02
    11d2:	6b 81       	ldd	r22, Y+3	; 0x03
    11d4:	7c 81       	ldd	r23, Y+4	; 0x04
    11d6:	8d 81       	ldd	r24, Y+5	; 0x05
    11d8:	9e 81       	ldd	r25, Y+6	; 0x06
    11da:	0e 94 93 0a 	call	0x1526	; 0x1526 <LCD_4_SendEnable_Signal>
	LCD_4_GetData(CopyLCD,CopyChar);
    11de:	2f 81       	ldd	r18, Y+7	; 0x07
    11e0:	49 81       	ldd	r20, Y+1	; 0x01
    11e2:	5a 81       	ldd	r21, Y+2	; 0x02
    11e4:	6b 81       	ldd	r22, Y+3	; 0x03
    11e6:	7c 81       	ldd	r23, Y+4	; 0x04
    11e8:	8d 81       	ldd	r24, Y+5	; 0x05
    11ea:	9e 81       	ldd	r25, Y+6	; 0x06
    11ec:	0e 94 58 0a 	call	0x14b0	; 0x14b0 <LCD_4_GetData>
	LCD_4_SendEnable_Signal(CopyLCD);
    11f0:	49 81       	ldd	r20, Y+1	; 0x01
    11f2:	5a 81       	ldd	r21, Y+2	; 0x02
    11f4:	6b 81       	ldd	r22, Y+3	; 0x03
    11f6:	7c 81       	ldd	r23, Y+4	; 0x04
    11f8:	8d 81       	ldd	r24, Y+5	; 0x05
    11fa:	9e 81       	ldd	r25, Y+6	; 0x06
    11fc:	0e 94 93 0a 	call	0x1526	; 0x1526 <LCD_4_SendEnable_Signal>
}
    1200:	00 00       	nop
    1202:	27 96       	adiw	r28, 0x07	; 7
    1204:	0f b6       	in	r0, 0x3f	; 63
    1206:	f8 94       	cli
    1208:	de bf       	out	0x3e, r29	; 62
    120a:	0f be       	out	0x3f, r0	; 63
    120c:	cd bf       	out	0x3d, r28	; 61
    120e:	df 91       	pop	r29
    1210:	cf 91       	pop	r28
    1212:	08 95       	ret

00001214 <LCD_4_Char_Postion>:
  * @param  : CopyRow
  * @param  : CopyCoulmn
  * @param  : CopyChar
  */
void LCD_4_Char_Postion(LCD_4_MODE CopyLCD , u8 CopyRow , u8 CopyCoulmn , u8 CopyChar)
{
    1214:	ef 92       	push	r14
    1216:	0f 93       	push	r16
    1218:	cf 93       	push	r28
    121a:	df 93       	push	r29
    121c:	cd b7       	in	r28, 0x3d	; 61
    121e:	de b7       	in	r29, 0x3e	; 62
    1220:	29 97       	sbiw	r28, 0x09	; 9
    1222:	0f b6       	in	r0, 0x3f	; 63
    1224:	f8 94       	cli
    1226:	de bf       	out	0x3e, r29	; 62
    1228:	0f be       	out	0x3f, r0	; 63
    122a:	cd bf       	out	0x3d, r28	; 61
    122c:	49 83       	std	Y+1, r20	; 0x01
    122e:	5a 83       	std	Y+2, r21	; 0x02
    1230:	6b 83       	std	Y+3, r22	; 0x03
    1232:	7c 83       	std	Y+4, r23	; 0x04
    1234:	8d 83       	std	Y+5, r24	; 0x05
    1236:	9e 83       	std	Y+6, r25	; 0x06
    1238:	2f 83       	std	Y+7, r18	; 0x07
    123a:	08 87       	std	Y+8, r16	; 0x08
    123c:	e9 86       	std	Y+9, r14	; 0x09
	LCD_4_SetCursor_Position(CopyLCD , CopyRow , CopyCoulmn);
    123e:	08 85       	ldd	r16, Y+8	; 0x08
    1240:	2f 81       	ldd	r18, Y+7	; 0x07
    1242:	49 81       	ldd	r20, Y+1	; 0x01
    1244:	5a 81       	ldd	r21, Y+2	; 0x02
    1246:	6b 81       	ldd	r22, Y+3	; 0x03
    1248:	7c 81       	ldd	r23, Y+4	; 0x04
    124a:	8d 81       	ldd	r24, Y+5	; 0x05
    124c:	9e 81       	ldd	r25, Y+6	; 0x06
    124e:	0e 94 a4 0b 	call	0x1748	; 0x1748 <LCD_4_SetCursor_Position>
	LCD_4_Char_Write(CopyLCD , CopyChar);
    1252:	29 85       	ldd	r18, Y+9	; 0x09
    1254:	49 81       	ldd	r20, Y+1	; 0x01
    1256:	5a 81       	ldd	r21, Y+2	; 0x02
    1258:	6b 81       	ldd	r22, Y+3	; 0x03
    125a:	7c 81       	ldd	r23, Y+4	; 0x04
    125c:	8d 81       	ldd	r24, Y+5	; 0x05
    125e:	9e 81       	ldd	r25, Y+6	; 0x06
    1260:	0e 94 c8 08 	call	0x1190	; 0x1190 <LCD_4_Char_Write>
}
    1264:	00 00       	nop
    1266:	29 96       	adiw	r28, 0x09	; 9
    1268:	0f b6       	in	r0, 0x3f	; 63
    126a:	f8 94       	cli
    126c:	de bf       	out	0x3e, r29	; 62
    126e:	0f be       	out	0x3f, r0	; 63
    1270:	cd bf       	out	0x3d, r28	; 61
    1272:	df 91       	pop	r29
    1274:	cf 91       	pop	r28
    1276:	0f 91       	pop	r16
    1278:	ef 90       	pop	r14
    127a:	08 95       	ret

0000127c <LCD_4_Str_Write>:
  * @brief  : Write String in first address in Lcd 4 Bit Mode
  * @param  : CopyLCD
  * @param  : CopySTR
  */
void LCD_4_Str_Write(LCD_4_MODE CopyLCD , u8 *CopySTR)
{
    127c:	cf 93       	push	r28
    127e:	df 93       	push	r29
    1280:	cd b7       	in	r28, 0x3d	; 61
    1282:	de b7       	in	r29, 0x3e	; 62
    1284:	28 97       	sbiw	r28, 0x08	; 8
    1286:	0f b6       	in	r0, 0x3f	; 63
    1288:	f8 94       	cli
    128a:	de bf       	out	0x3e, r29	; 62
    128c:	0f be       	out	0x3f, r0	; 63
    128e:	cd bf       	out	0x3d, r28	; 61
    1290:	49 83       	std	Y+1, r20	; 0x01
    1292:	5a 83       	std	Y+2, r21	; 0x02
    1294:	6b 83       	std	Y+3, r22	; 0x03
    1296:	7c 83       	std	Y+4, r23	; 0x04
    1298:	8d 83       	std	Y+5, r24	; 0x05
    129a:	9e 83       	std	Y+6, r25	; 0x06
    129c:	38 87       	std	Y+8, r19	; 0x08
    129e:	2f 83       	std	Y+7, r18	; 0x07
	while(*CopySTR)
    12a0:	12 c0       	rjmp	.+36     	; 0x12c6 <LCD_4_Str_Write+0x4a>
	{
		LCD_4_Char_Write(CopyLCD, *CopySTR++);
    12a2:	8f 81       	ldd	r24, Y+7	; 0x07
    12a4:	98 85       	ldd	r25, Y+8	; 0x08
    12a6:	9c 01       	movw	r18, r24
    12a8:	2f 5f       	subi	r18, 0xFF	; 255
    12aa:	3f 4f       	sbci	r19, 0xFF	; 255
    12ac:	38 87       	std	Y+8, r19	; 0x08
    12ae:	2f 83       	std	Y+7, r18	; 0x07
    12b0:	fc 01       	movw	r30, r24
    12b2:	80 81       	ld	r24, Z
    12b4:	28 2f       	mov	r18, r24
    12b6:	49 81       	ldd	r20, Y+1	; 0x01
    12b8:	5a 81       	ldd	r21, Y+2	; 0x02
    12ba:	6b 81       	ldd	r22, Y+3	; 0x03
    12bc:	7c 81       	ldd	r23, Y+4	; 0x04
    12be:	8d 81       	ldd	r24, Y+5	; 0x05
    12c0:	9e 81       	ldd	r25, Y+6	; 0x06
    12c2:	0e 94 c8 08 	call	0x1190	; 0x1190 <LCD_4_Char_Write>
  * @param  : CopyLCD
  * @param  : CopySTR
  */
void LCD_4_Str_Write(LCD_4_MODE CopyLCD , u8 *CopySTR)
{
	while(*CopySTR)
    12c6:	8f 81       	ldd	r24, Y+7	; 0x07
    12c8:	98 85       	ldd	r25, Y+8	; 0x08
    12ca:	fc 01       	movw	r30, r24
    12cc:	80 81       	ld	r24, Z
    12ce:	88 23       	and	r24, r24
    12d0:	41 f7       	brne	.-48     	; 0x12a2 <LCD_4_Str_Write+0x26>
	{
		LCD_4_Char_Write(CopyLCD, *CopySTR++);
	}
}
    12d2:	00 00       	nop
    12d4:	28 96       	adiw	r28, 0x08	; 8
    12d6:	0f b6       	in	r0, 0x3f	; 63
    12d8:	f8 94       	cli
    12da:	de bf       	out	0x3e, r29	; 62
    12dc:	0f be       	out	0x3f, r0	; 63
    12de:	cd bf       	out	0x3d, r28	; 61
    12e0:	df 91       	pop	r29
    12e2:	cf 91       	pop	r28
    12e4:	08 95       	ret

000012e6 <LCD_4_STR_Postion>:
  * @param  : CopyRow
  * @param  : CopyCoulmn
  * @param  : CopySTR
  */
void LCD_4_STR_Postion(LCD_4_MODE CopyLCD , u8 CopyRow , u8 CopyCoulmn , u8 *CopySTR)
{
    12e6:	ef 92       	push	r14
    12e8:	ff 92       	push	r15
    12ea:	0f 93       	push	r16
    12ec:	cf 93       	push	r28
    12ee:	df 93       	push	r29
    12f0:	cd b7       	in	r28, 0x3d	; 61
    12f2:	de b7       	in	r29, 0x3e	; 62
    12f4:	2a 97       	sbiw	r28, 0x0a	; 10
    12f6:	0f b6       	in	r0, 0x3f	; 63
    12f8:	f8 94       	cli
    12fa:	de bf       	out	0x3e, r29	; 62
    12fc:	0f be       	out	0x3f, r0	; 63
    12fe:	cd bf       	out	0x3d, r28	; 61
    1300:	49 83       	std	Y+1, r20	; 0x01
    1302:	5a 83       	std	Y+2, r21	; 0x02
    1304:	6b 83       	std	Y+3, r22	; 0x03
    1306:	7c 83       	std	Y+4, r23	; 0x04
    1308:	8d 83       	std	Y+5, r24	; 0x05
    130a:	9e 83       	std	Y+6, r25	; 0x06
    130c:	2f 83       	std	Y+7, r18	; 0x07
    130e:	08 87       	std	Y+8, r16	; 0x08
    1310:	fa 86       	std	Y+10, r15	; 0x0a
    1312:	e9 86       	std	Y+9, r14	; 0x09
	LCD_4_SetCursor_Position(CopyLCD , CopyRow , CopyCoulmn);
    1314:	08 85       	ldd	r16, Y+8	; 0x08
    1316:	2f 81       	ldd	r18, Y+7	; 0x07
    1318:	49 81       	ldd	r20, Y+1	; 0x01
    131a:	5a 81       	ldd	r21, Y+2	; 0x02
    131c:	6b 81       	ldd	r22, Y+3	; 0x03
    131e:	7c 81       	ldd	r23, Y+4	; 0x04
    1320:	8d 81       	ldd	r24, Y+5	; 0x05
    1322:	9e 81       	ldd	r25, Y+6	; 0x06
    1324:	0e 94 a4 0b 	call	0x1748	; 0x1748 <LCD_4_SetCursor_Position>
	while(*CopySTR)
    1328:	12 c0       	rjmp	.+36     	; 0x134e <LCD_4_STR_Postion+0x68>
	{
		LCD_4_Char_Write(CopyLCD, *CopySTR++);
    132a:	89 85       	ldd	r24, Y+9	; 0x09
    132c:	9a 85       	ldd	r25, Y+10	; 0x0a
    132e:	9c 01       	movw	r18, r24
    1330:	2f 5f       	subi	r18, 0xFF	; 255
    1332:	3f 4f       	sbci	r19, 0xFF	; 255
    1334:	3a 87       	std	Y+10, r19	; 0x0a
    1336:	29 87       	std	Y+9, r18	; 0x09
    1338:	fc 01       	movw	r30, r24
    133a:	80 81       	ld	r24, Z
    133c:	28 2f       	mov	r18, r24
    133e:	49 81       	ldd	r20, Y+1	; 0x01
    1340:	5a 81       	ldd	r21, Y+2	; 0x02
    1342:	6b 81       	ldd	r22, Y+3	; 0x03
    1344:	7c 81       	ldd	r23, Y+4	; 0x04
    1346:	8d 81       	ldd	r24, Y+5	; 0x05
    1348:	9e 81       	ldd	r25, Y+6	; 0x06
    134a:	0e 94 c8 08 	call	0x1190	; 0x1190 <LCD_4_Char_Write>
  * @param  : CopySTR
  */
void LCD_4_STR_Postion(LCD_4_MODE CopyLCD , u8 CopyRow , u8 CopyCoulmn , u8 *CopySTR)
{
	LCD_4_SetCursor_Position(CopyLCD , CopyRow , CopyCoulmn);
	while(*CopySTR)
    134e:	89 85       	ldd	r24, Y+9	; 0x09
    1350:	9a 85       	ldd	r25, Y+10	; 0x0a
    1352:	fc 01       	movw	r30, r24
    1354:	80 81       	ld	r24, Z
    1356:	88 23       	and	r24, r24
    1358:	41 f7       	brne	.-48     	; 0x132a <LCD_4_STR_Postion+0x44>
	{
		LCD_4_Char_Write(CopyLCD, *CopySTR++);
	}
}
    135a:	00 00       	nop
    135c:	2a 96       	adiw	r28, 0x0a	; 10
    135e:	0f b6       	in	r0, 0x3f	; 63
    1360:	f8 94       	cli
    1362:	de bf       	out	0x3e, r29	; 62
    1364:	0f be       	out	0x3f, r0	; 63
    1366:	cd bf       	out	0x3d, r28	; 61
    1368:	df 91       	pop	r29
    136a:	cf 91       	pop	r28
    136c:	0f 91       	pop	r16
    136e:	ff 90       	pop	r15
    1370:	ef 90       	pop	r14
    1372:	08 95       	ret

00001374 <Convert_u8_to_String>:
  * @brief  : Conversion Number To String And Store String In CopySTR (Array)
  * @param  : CopyValueu8
  * @param  : CopySTR
  */
void Convert_u8_to_String(u8 CopyValueu8 , u8 *CopySTR)
{
    1374:	cf 93       	push	r28
    1376:	df 93       	push	r29
    1378:	00 d0       	rcall	.+0      	; 0x137a <Convert_u8_to_String+0x6>
    137a:	1f 92       	push	r1
    137c:	cd b7       	in	r28, 0x3d	; 61
    137e:	de b7       	in	r29, 0x3e	; 62
    1380:	89 83       	std	Y+1, r24	; 0x01
    1382:	7b 83       	std	Y+3, r23	; 0x03
    1384:	6a 83       	std	Y+2, r22	; 0x02
	memset(CopySTR , '\0' , 4);
    1386:	8a 81       	ldd	r24, Y+2	; 0x02
    1388:	9b 81       	ldd	r25, Y+3	; 0x03
    138a:	44 e0       	ldi	r20, 0x04	; 4
    138c:	50 e0       	ldi	r21, 0x00	; 0
    138e:	60 e0       	ldi	r22, 0x00	; 0
    1390:	70 e0       	ldi	r23, 0x00	; 0
    1392:	0e 94 b3 11 	call	0x2366	; 0x2366 <memset>
	sprintf(CopySTR , "%i", CopyValueu8);
    1396:	89 81       	ldd	r24, Y+1	; 0x01
    1398:	88 2f       	mov	r24, r24
    139a:	90 e0       	ldi	r25, 0x00	; 0
    139c:	29 2f       	mov	r18, r25
    139e:	2f 93       	push	r18
    13a0:	8f 93       	push	r24
    13a2:	80 ea       	ldi	r24, 0xA0	; 160
    13a4:	90 e0       	ldi	r25, 0x00	; 0
    13a6:	89 2f       	mov	r24, r25
    13a8:	8f 93       	push	r24
    13aa:	80 ea       	ldi	r24, 0xA0	; 160
    13ac:	90 e0       	ldi	r25, 0x00	; 0
    13ae:	8f 93       	push	r24
    13b0:	8b 81       	ldd	r24, Y+3	; 0x03
    13b2:	8f 93       	push	r24
    13b4:	8a 81       	ldd	r24, Y+2	; 0x02
    13b6:	8f 93       	push	r24
    13b8:	0e 94 ba 11 	call	0x2374	; 0x2374 <sprintf>
    13bc:	0f 90       	pop	r0
    13be:	0f 90       	pop	r0
    13c0:	0f 90       	pop	r0
    13c2:	0f 90       	pop	r0
    13c4:	0f 90       	pop	r0
    13c6:	0f 90       	pop	r0
}
    13c8:	00 00       	nop
    13ca:	0f 90       	pop	r0
    13cc:	0f 90       	pop	r0
    13ce:	0f 90       	pop	r0
    13d0:	df 91       	pop	r29
    13d2:	cf 91       	pop	r28
    13d4:	08 95       	ret

000013d6 <Convert_u16_to_String>:
  * @brief  : Conversion Number To String And Store String In CopySTR (Array)
  * @param  : CopyValueu16
  * @param  : CopySTR
  */
void Convert_u16_to_String(u16 CopyValueu16 , u8 *CopySTR)
{
    13d6:	cf 93       	push	r28
    13d8:	df 93       	push	r29
    13da:	00 d0       	rcall	.+0      	; 0x13dc <Convert_u16_to_String+0x6>
    13dc:	00 d0       	rcall	.+0      	; 0x13de <Convert_u16_to_String+0x8>
    13de:	cd b7       	in	r28, 0x3d	; 61
    13e0:	de b7       	in	r29, 0x3e	; 62
    13e2:	9a 83       	std	Y+2, r25	; 0x02
    13e4:	89 83       	std	Y+1, r24	; 0x01
    13e6:	7c 83       	std	Y+4, r23	; 0x04
    13e8:	6b 83       	std	Y+3, r22	; 0x03
	memset(CopySTR , '\0' , 6);
    13ea:	8b 81       	ldd	r24, Y+3	; 0x03
    13ec:	9c 81       	ldd	r25, Y+4	; 0x04
    13ee:	46 e0       	ldi	r20, 0x06	; 6
    13f0:	50 e0       	ldi	r21, 0x00	; 0
    13f2:	60 e0       	ldi	r22, 0x00	; 0
    13f4:	70 e0       	ldi	r23, 0x00	; 0
    13f6:	0e 94 b3 11 	call	0x2366	; 0x2366 <memset>
	sprintf(CopySTR , "%i", CopyValueu16);
    13fa:	8a 81       	ldd	r24, Y+2	; 0x02
    13fc:	8f 93       	push	r24
    13fe:	89 81       	ldd	r24, Y+1	; 0x01
    1400:	8f 93       	push	r24
    1402:	80 ea       	ldi	r24, 0xA0	; 160
    1404:	90 e0       	ldi	r25, 0x00	; 0
    1406:	89 2f       	mov	r24, r25
    1408:	8f 93       	push	r24
    140a:	80 ea       	ldi	r24, 0xA0	; 160
    140c:	90 e0       	ldi	r25, 0x00	; 0
    140e:	8f 93       	push	r24
    1410:	8c 81       	ldd	r24, Y+4	; 0x04
    1412:	8f 93       	push	r24
    1414:	8b 81       	ldd	r24, Y+3	; 0x03
    1416:	8f 93       	push	r24
    1418:	0e 94 ba 11 	call	0x2374	; 0x2374 <sprintf>
    141c:	0f 90       	pop	r0
    141e:	0f 90       	pop	r0
    1420:	0f 90       	pop	r0
    1422:	0f 90       	pop	r0
    1424:	0f 90       	pop	r0
    1426:	0f 90       	pop	r0
}
    1428:	00 00       	nop
    142a:	0f 90       	pop	r0
    142c:	0f 90       	pop	r0
    142e:	0f 90       	pop	r0
    1430:	0f 90       	pop	r0
    1432:	df 91       	pop	r29
    1434:	cf 91       	pop	r28
    1436:	08 95       	ret

00001438 <Convert_u32_to_String>:
  * @brief  : Conversion Number To String And Store String In CopySTR (Array)
  * @param  : CopyValueu32
  * @param  : CopySTR
  */
void Convert_u32_to_String(u32 CopyValueu32 , u8 *CopySTR)
{
    1438:	cf 93       	push	r28
    143a:	df 93       	push	r29
    143c:	00 d0       	rcall	.+0      	; 0x143e <Convert_u32_to_String+0x6>
    143e:	00 d0       	rcall	.+0      	; 0x1440 <Convert_u32_to_String+0x8>
    1440:	00 d0       	rcall	.+0      	; 0x1442 <Convert_u32_to_String+0xa>
    1442:	cd b7       	in	r28, 0x3d	; 61
    1444:	de b7       	in	r29, 0x3e	; 62
    1446:	69 83       	std	Y+1, r22	; 0x01
    1448:	7a 83       	std	Y+2, r23	; 0x02
    144a:	8b 83       	std	Y+3, r24	; 0x03
    144c:	9c 83       	std	Y+4, r25	; 0x04
    144e:	5e 83       	std	Y+6, r21	; 0x06
    1450:	4d 83       	std	Y+5, r20	; 0x05
	memset(CopySTR , '\0' , 11);
    1452:	8d 81       	ldd	r24, Y+5	; 0x05
    1454:	9e 81       	ldd	r25, Y+6	; 0x06
    1456:	4b e0       	ldi	r20, 0x0B	; 11
    1458:	50 e0       	ldi	r21, 0x00	; 0
    145a:	60 e0       	ldi	r22, 0x00	; 0
    145c:	70 e0       	ldi	r23, 0x00	; 0
    145e:	0e 94 b3 11 	call	0x2366	; 0x2366 <memset>
	sprintf(CopySTR , "%i", CopyValueu32);
    1462:	8c 81       	ldd	r24, Y+4	; 0x04
    1464:	8f 93       	push	r24
    1466:	8b 81       	ldd	r24, Y+3	; 0x03
    1468:	8f 93       	push	r24
    146a:	8a 81       	ldd	r24, Y+2	; 0x02
    146c:	8f 93       	push	r24
    146e:	89 81       	ldd	r24, Y+1	; 0x01
    1470:	8f 93       	push	r24
    1472:	80 ea       	ldi	r24, 0xA0	; 160
    1474:	90 e0       	ldi	r25, 0x00	; 0
    1476:	89 2f       	mov	r24, r25
    1478:	8f 93       	push	r24
    147a:	80 ea       	ldi	r24, 0xA0	; 160
    147c:	90 e0       	ldi	r25, 0x00	; 0
    147e:	8f 93       	push	r24
    1480:	8e 81       	ldd	r24, Y+6	; 0x06
    1482:	8f 93       	push	r24
    1484:	8d 81       	ldd	r24, Y+5	; 0x05
    1486:	8f 93       	push	r24
    1488:	0e 94 ba 11 	call	0x2374	; 0x2374 <sprintf>
    148c:	8d b7       	in	r24, 0x3d	; 61
    148e:	9e b7       	in	r25, 0x3e	; 62
    1490:	08 96       	adiw	r24, 0x08	; 8
    1492:	0f b6       	in	r0, 0x3f	; 63
    1494:	f8 94       	cli
    1496:	de bf       	out	0x3e, r29	; 62
    1498:	0f be       	out	0x3f, r0	; 63
    149a:	cd bf       	out	0x3d, r28	; 61
}
    149c:	00 00       	nop
    149e:	26 96       	adiw	r28, 0x06	; 6
    14a0:	0f b6       	in	r0, 0x3f	; 63
    14a2:	f8 94       	cli
    14a4:	de bf       	out	0x3e, r29	; 62
    14a6:	0f be       	out	0x3f, r0	; 63
    14a8:	cd bf       	out	0x3d, r28	; 61
    14aa:	df 91       	pop	r29
    14ac:	cf 91       	pop	r28
    14ae:	08 95       	ret

000014b0 <LCD_4_GetData>:
  * @brief  : Static Function To Get Data of LCD 4 Bit Mode
  * @param  : CopyLCD
  * @param  : CopyCMD
  */
static void LCD_4_GetData(LCD_4_MODE CopyLCD , u8 CopyCMD)
{
    14b0:	cf 93       	push	r28
    14b2:	df 93       	push	r29
    14b4:	00 d0       	rcall	.+0      	; 0x14b6 <LCD_4_GetData+0x6>
    14b6:	00 d0       	rcall	.+0      	; 0x14b8 <LCD_4_GetData+0x8>
    14b8:	00 d0       	rcall	.+0      	; 0x14ba <LCD_4_GetData+0xa>
    14ba:	1f 92       	push	r1
    14bc:	cd b7       	in	r28, 0x3d	; 61
    14be:	de b7       	in	r29, 0x3e	; 62
    14c0:	49 83       	std	Y+1, r20	; 0x01
    14c2:	5a 83       	std	Y+2, r21	; 0x02
    14c4:	6b 83       	std	Y+3, r22	; 0x03
    14c6:	7c 83       	std	Y+4, r23	; 0x04
    14c8:	8d 83       	std	Y+5, r24	; 0x05
    14ca:	9e 83       	std	Y+6, r25	; 0x06
    14cc:	2f 83       	std	Y+7, r18	; 0x07
	Dio_setPinVal(CopyLCD.Port[0] , (CopyCMD >> 0) & (u8)0x01);
    14ce:	8f 81       	ldd	r24, Y+7	; 0x07
    14d0:	98 2f       	mov	r25, r24
    14d2:	91 70       	andi	r25, 0x01	; 1
    14d4:	8b 81       	ldd	r24, Y+3	; 0x03
    14d6:	69 2f       	mov	r22, r25
    14d8:	0e 94 28 02 	call	0x450	; 0x450 <Dio_setPinVal>
	Dio_setPinVal(CopyLCD.Port[1] , (CopyCMD >> 1) & (u8)0x01);
    14dc:	8f 81       	ldd	r24, Y+7	; 0x07
    14de:	86 95       	lsr	r24
    14e0:	98 2f       	mov	r25, r24
    14e2:	91 70       	andi	r25, 0x01	; 1
    14e4:	8c 81       	ldd	r24, Y+4	; 0x04
    14e6:	69 2f       	mov	r22, r25
    14e8:	0e 94 28 02 	call	0x450	; 0x450 <Dio_setPinVal>
	Dio_setPinVal(CopyLCD.Port[2] , (CopyCMD >> 2) & (u8)0x01);
    14ec:	8f 81       	ldd	r24, Y+7	; 0x07
    14ee:	86 95       	lsr	r24
    14f0:	86 95       	lsr	r24
    14f2:	98 2f       	mov	r25, r24
    14f4:	91 70       	andi	r25, 0x01	; 1
    14f6:	8d 81       	ldd	r24, Y+5	; 0x05
    14f8:	69 2f       	mov	r22, r25
    14fa:	0e 94 28 02 	call	0x450	; 0x450 <Dio_setPinVal>
	Dio_setPinVal(CopyLCD.Port[3] , (CopyCMD >> 3) & (u8)0x01);
    14fe:	8f 81       	ldd	r24, Y+7	; 0x07
    1500:	86 95       	lsr	r24
    1502:	86 95       	lsr	r24
    1504:	86 95       	lsr	r24
    1506:	98 2f       	mov	r25, r24
    1508:	91 70       	andi	r25, 0x01	; 1
    150a:	8e 81       	ldd	r24, Y+6	; 0x06
    150c:	69 2f       	mov	r22, r25
    150e:	0e 94 28 02 	call	0x450	; 0x450 <Dio_setPinVal>
}
    1512:	00 00       	nop
    1514:	27 96       	adiw	r28, 0x07	; 7
    1516:	0f b6       	in	r0, 0x3f	; 63
    1518:	f8 94       	cli
    151a:	de bf       	out	0x3e, r29	; 62
    151c:	0f be       	out	0x3f, r0	; 63
    151e:	cd bf       	out	0x3d, r28	; 61
    1520:	df 91       	pop	r29
    1522:	cf 91       	pop	r28
    1524:	08 95       	ret

00001526 <LCD_4_SendEnable_Signal>:
/**
  * @brief  : Static Function To Send Enable Signal
  * @param  : CopyLCD
  */
static void LCD_4_SendEnable_Signal(LCD_4_MODE CopyLCD)
{
    1526:	cf 93       	push	r28
    1528:	df 93       	push	r29
    152a:	cd b7       	in	r28, 0x3d	; 61
    152c:	de b7       	in	r29, 0x3e	; 62
    152e:	a6 97       	sbiw	r28, 0x26	; 38
    1530:	0f b6       	in	r0, 0x3f	; 63
    1532:	f8 94       	cli
    1534:	de bf       	out	0x3e, r29	; 62
    1536:	0f be       	out	0x3f, r0	; 63
    1538:	cd bf       	out	0x3d, r28	; 61
    153a:	49 a3       	std	Y+33, r20	; 0x21
    153c:	5a a3       	std	Y+34, r21	; 0x22
    153e:	6b a3       	std	Y+35, r22	; 0x23
    1540:	7c a3       	std	Y+36, r23	; 0x24
    1542:	8d a3       	std	Y+37, r24	; 0x25
    1544:	9e a3       	std	Y+38, r25	; 0x26
	Dio_setPinVal(CopyLCD.E,Status_Pin_High);
    1546:	8a a1       	ldd	r24, Y+34	; 0x22
    1548:	61 e0       	ldi	r22, 0x01	; 1
    154a:	0e 94 28 02 	call	0x450	; 0x450 <Dio_setPinVal>
    154e:	80 e0       	ldi	r24, 0x00	; 0
    1550:	90 e0       	ldi	r25, 0x00	; 0
    1552:	a0 ea       	ldi	r26, 0xA0	; 160
    1554:	b0 e4       	ldi	r27, 0x40	; 64
    1556:	89 83       	std	Y+1, r24	; 0x01
    1558:	9a 83       	std	Y+2, r25	; 0x02
    155a:	ab 83       	std	Y+3, r26	; 0x03
    155c:	bc 83       	std	Y+4, r27	; 0x04
	__builtin_avr_delay_cycles(__ticks_dc);

#else
	uint8_t __ticks;
	double __tmp2 ;
	__tmp = ((F_CPU) / 3e6) * __us;
    155e:	2b ea       	ldi	r18, 0xAB	; 171
    1560:	3a ea       	ldi	r19, 0xAA	; 170
    1562:	4a ea       	ldi	r20, 0xAA	; 170
    1564:	5e e3       	ldi	r21, 0x3E	; 62
    1566:	69 81       	ldd	r22, Y+1	; 0x01
    1568:	7a 81       	ldd	r23, Y+2	; 0x02
    156a:	8b 81       	ldd	r24, Y+3	; 0x03
    156c:	9c 81       	ldd	r25, Y+4	; 0x04
    156e:	0e 94 46 11 	call	0x228c	; 0x228c <__mulsf3>
    1572:	dc 01       	movw	r26, r24
    1574:	cb 01       	movw	r24, r22
    1576:	8d 83       	std	Y+5, r24	; 0x05
    1578:	9e 83       	std	Y+6, r25	; 0x06
    157a:	af 83       	std	Y+7, r26	; 0x07
    157c:	b8 87       	std	Y+8, r27	; 0x08
	__tmp2 = ((F_CPU) / 4e6) * __us;
    157e:	20 e0       	ldi	r18, 0x00	; 0
    1580:	30 e0       	ldi	r19, 0x00	; 0
    1582:	40 e8       	ldi	r20, 0x80	; 128
    1584:	5e e3       	ldi	r21, 0x3E	; 62
    1586:	69 81       	ldd	r22, Y+1	; 0x01
    1588:	7a 81       	ldd	r23, Y+2	; 0x02
    158a:	8b 81       	ldd	r24, Y+3	; 0x03
    158c:	9c 81       	ldd	r25, Y+4	; 0x04
    158e:	0e 94 46 11 	call	0x228c	; 0x228c <__mulsf3>
    1592:	dc 01       	movw	r26, r24
    1594:	cb 01       	movw	r24, r22
    1596:	89 87       	std	Y+9, r24	; 0x09
    1598:	9a 87       	std	Y+10, r25	; 0x0a
    159a:	ab 87       	std	Y+11, r26	; 0x0b
    159c:	bc 87       	std	Y+12, r27	; 0x0c
	if (__tmp < 1.0)
    159e:	20 e0       	ldi	r18, 0x00	; 0
    15a0:	30 e0       	ldi	r19, 0x00	; 0
    15a2:	40 e8       	ldi	r20, 0x80	; 128
    15a4:	5f e3       	ldi	r21, 0x3F	; 63
    15a6:	6d 81       	ldd	r22, Y+5	; 0x05
    15a8:	7e 81       	ldd	r23, Y+6	; 0x06
    15aa:	8f 81       	ldd	r24, Y+7	; 0x07
    15ac:	98 85       	ldd	r25, Y+8	; 0x08
    15ae:	0e 94 26 10 	call	0x204c	; 0x204c <__cmpsf2>
    15b2:	88 23       	and	r24, r24
    15b4:	1c f4       	brge	.+6      	; 0x15bc <LCD_4_SendEnable_Signal+0x96>
		__ticks = 1;
    15b6:	81 e0       	ldi	r24, 0x01	; 1
    15b8:	8d 87       	std	Y+13, r24	; 0x0d
    15ba:	b2 c0       	rjmp	.+356    	; 0x1720 <LCD_4_SendEnable_Signal+0x1fa>
	else if (__tmp2 > 65535)
    15bc:	20 e0       	ldi	r18, 0x00	; 0
    15be:	3f ef       	ldi	r19, 0xFF	; 255
    15c0:	4f e7       	ldi	r20, 0x7F	; 127
    15c2:	57 e4       	ldi	r21, 0x47	; 71
    15c4:	69 85       	ldd	r22, Y+9	; 0x09
    15c6:	7a 85       	ldd	r23, Y+10	; 0x0a
    15c8:	8b 85       	ldd	r24, Y+11	; 0x0b
    15ca:	9c 85       	ldd	r25, Y+12	; 0x0c
    15cc:	0e 94 41 11 	call	0x2282	; 0x2282 <__gesf2>
    15d0:	18 16       	cp	r1, r24
    15d2:	0c f0       	brlt	.+2      	; 0x15d6 <LCD_4_SendEnable_Signal+0xb0>
    15d4:	7b c0       	rjmp	.+246    	; 0x16cc <LCD_4_SendEnable_Signal+0x1a6>
	{
		_delay_ms(__us / 1000.0);
    15d6:	20 e0       	ldi	r18, 0x00	; 0
    15d8:	30 e0       	ldi	r19, 0x00	; 0
    15da:	4a e7       	ldi	r20, 0x7A	; 122
    15dc:	54 e4       	ldi	r21, 0x44	; 68
    15de:	69 81       	ldd	r22, Y+1	; 0x01
    15e0:	7a 81       	ldd	r23, Y+2	; 0x02
    15e2:	8b 81       	ldd	r24, Y+3	; 0x03
    15e4:	9c 81       	ldd	r25, Y+4	; 0x04
    15e6:	0e 94 2b 10 	call	0x2056	; 0x2056 <__divsf3>
    15ea:	dc 01       	movw	r26, r24
    15ec:	cb 01       	movw	r24, r22
    15ee:	8e 87       	std	Y+14, r24	; 0x0e
    15f0:	9f 87       	std	Y+15, r25	; 0x0f
    15f2:	a8 8b       	std	Y+16, r26	; 0x10
    15f4:	b9 8b       	std	Y+17, r27	; 0x11

	__builtin_avr_delay_cycles(__ticks_dc);

#else
	uint16_t __ticks;
	__tmp = ((F_CPU) / 4e3) * __ms;
    15f6:	20 e0       	ldi	r18, 0x00	; 0
    15f8:	30 e0       	ldi	r19, 0x00	; 0
    15fa:	4a e7       	ldi	r20, 0x7A	; 122
    15fc:	53 e4       	ldi	r21, 0x43	; 67
    15fe:	6e 85       	ldd	r22, Y+14	; 0x0e
    1600:	7f 85       	ldd	r23, Y+15	; 0x0f
    1602:	88 89       	ldd	r24, Y+16	; 0x10
    1604:	99 89       	ldd	r25, Y+17	; 0x11
    1606:	0e 94 46 11 	call	0x228c	; 0x228c <__mulsf3>
    160a:	dc 01       	movw	r26, r24
    160c:	cb 01       	movw	r24, r22
    160e:	8a 8b       	std	Y+18, r24	; 0x12
    1610:	9b 8b       	std	Y+19, r25	; 0x13
    1612:	ac 8b       	std	Y+20, r26	; 0x14
    1614:	bd 8b       	std	Y+21, r27	; 0x15
	if (__tmp < 1.0)
    1616:	20 e0       	ldi	r18, 0x00	; 0
    1618:	30 e0       	ldi	r19, 0x00	; 0
    161a:	40 e8       	ldi	r20, 0x80	; 128
    161c:	5f e3       	ldi	r21, 0x3F	; 63
    161e:	6a 89       	ldd	r22, Y+18	; 0x12
    1620:	7b 89       	ldd	r23, Y+19	; 0x13
    1622:	8c 89       	ldd	r24, Y+20	; 0x14
    1624:	9d 89       	ldd	r25, Y+21	; 0x15
    1626:	0e 94 26 10 	call	0x204c	; 0x204c <__cmpsf2>
    162a:	88 23       	and	r24, r24
    162c:	2c f4       	brge	.+10     	; 0x1638 <LCD_4_SendEnable_Signal+0x112>
		__ticks = 1;
    162e:	81 e0       	ldi	r24, 0x01	; 1
    1630:	90 e0       	ldi	r25, 0x00	; 0
    1632:	9f 8b       	std	Y+23, r25	; 0x17
    1634:	8e 8b       	std	Y+22, r24	; 0x16
    1636:	3f c0       	rjmp	.+126    	; 0x16b6 <LCD_4_SendEnable_Signal+0x190>
	else if (__tmp > 65535)
    1638:	20 e0       	ldi	r18, 0x00	; 0
    163a:	3f ef       	ldi	r19, 0xFF	; 255
    163c:	4f e7       	ldi	r20, 0x7F	; 127
    163e:	57 e4       	ldi	r21, 0x47	; 71
    1640:	6a 89       	ldd	r22, Y+18	; 0x12
    1642:	7b 89       	ldd	r23, Y+19	; 0x13
    1644:	8c 89       	ldd	r24, Y+20	; 0x14
    1646:	9d 89       	ldd	r25, Y+21	; 0x15
    1648:	0e 94 41 11 	call	0x2282	; 0x2282 <__gesf2>
    164c:	18 16       	cp	r1, r24
    164e:	4c f5       	brge	.+82     	; 0x16a2 <LCD_4_SendEnable_Signal+0x17c>
	{
		//	__ticks = requested delay in 1/10 ms
		__ticks = (uint16_t) (__ms * 10.0);
    1650:	20 e0       	ldi	r18, 0x00	; 0
    1652:	30 e0       	ldi	r19, 0x00	; 0
    1654:	40 e2       	ldi	r20, 0x20	; 32
    1656:	51 e4       	ldi	r21, 0x41	; 65
    1658:	6e 85       	ldd	r22, Y+14	; 0x0e
    165a:	7f 85       	ldd	r23, Y+15	; 0x0f
    165c:	88 89       	ldd	r24, Y+16	; 0x10
    165e:	99 89       	ldd	r25, Y+17	; 0x11
    1660:	0e 94 46 11 	call	0x228c	; 0x228c <__mulsf3>
    1664:	dc 01       	movw	r26, r24
    1666:	cb 01       	movw	r24, r22
    1668:	bc 01       	movw	r22, r24
    166a:	cd 01       	movw	r24, r26
    166c:	0e 94 9d 10 	call	0x213a	; 0x213a <__fixunssfsi>
    1670:	dc 01       	movw	r26, r24
    1672:	cb 01       	movw	r24, r22
    1674:	9f 8b       	std	Y+23, r25	; 0x17
    1676:	8e 8b       	std	Y+22, r24	; 0x16
    1678:	0f c0       	rjmp	.+30     	; 0x1698 <LCD_4_SendEnable_Signal+0x172>
    167a:	89 e1       	ldi	r24, 0x19	; 25
    167c:	90 e0       	ldi	r25, 0x00	; 0
    167e:	99 8f       	std	Y+25, r25	; 0x19
    1680:	88 8f       	std	Y+24, r24	; 0x18
    milliseconds can be achieved.
 */
void
_delay_loop_2(uint16_t __count)
{
	__asm__ volatile (
    1682:	88 8d       	ldd	r24, Y+24	; 0x18
    1684:	99 8d       	ldd	r25, Y+25	; 0x19
    1686:	01 97       	sbiw	r24, 0x01	; 1
    1688:	f1 f7       	brne	.-4      	; 0x1686 <LCD_4_SendEnable_Signal+0x160>
    168a:	99 8f       	std	Y+25, r25	; 0x19
    168c:	88 8f       	std	Y+24, r24	; 0x18
		while(__ticks)
		{
			// wait 1/10 ms
			_delay_loop_2(((F_CPU) / 4e3) / 10);
			__ticks --;
    168e:	8e 89       	ldd	r24, Y+22	; 0x16
    1690:	9f 89       	ldd	r25, Y+23	; 0x17
    1692:	01 97       	sbiw	r24, 0x01	; 1
    1694:	9f 8b       	std	Y+23, r25	; 0x17
    1696:	8e 8b       	std	Y+22, r24	; 0x16
		__ticks = 1;
	else if (__tmp > 65535)
	{
		//	__ticks = requested delay in 1/10 ms
		__ticks = (uint16_t) (__ms * 10.0);
		while(__ticks)
    1698:	8e 89       	ldd	r24, Y+22	; 0x16
    169a:	9f 89       	ldd	r25, Y+23	; 0x17
    169c:	89 2b       	or	r24, r25
    169e:	69 f7       	brne	.-38     	; 0x167a <LCD_4_SendEnable_Signal+0x154>
    16a0:	3f c0       	rjmp	.+126    	; 0x1720 <LCD_4_SendEnable_Signal+0x1fa>
			__ticks --;
		}
		return;
	}
	else
		__ticks = (uint16_t)__tmp;
    16a2:	6a 89       	ldd	r22, Y+18	; 0x12
    16a4:	7b 89       	ldd	r23, Y+19	; 0x13
    16a6:	8c 89       	ldd	r24, Y+20	; 0x14
    16a8:	9d 89       	ldd	r25, Y+21	; 0x15
    16aa:	0e 94 9d 10 	call	0x213a	; 0x213a <__fixunssfsi>
    16ae:	dc 01       	movw	r26, r24
    16b0:	cb 01       	movw	r24, r22
    16b2:	9f 8b       	std	Y+23, r25	; 0x17
    16b4:	8e 8b       	std	Y+22, r24	; 0x16
    16b6:	8e 89       	ldd	r24, Y+22	; 0x16
    16b8:	9f 89       	ldd	r25, Y+23	; 0x17
    16ba:	9b 8f       	std	Y+27, r25	; 0x1b
    16bc:	8a 8f       	std	Y+26, r24	; 0x1a
    16be:	8a 8d       	ldd	r24, Y+26	; 0x1a
    16c0:	9b 8d       	ldd	r25, Y+27	; 0x1b
    16c2:	01 97       	sbiw	r24, 0x01	; 1
    16c4:	f1 f7       	brne	.-4      	; 0x16c2 <LCD_4_SendEnable_Signal+0x19c>
    16c6:	9b 8f       	std	Y+27, r25	; 0x1b
    16c8:	8a 8f       	std	Y+26, r24	; 0x1a
    16ca:	2a c0       	rjmp	.+84     	; 0x1720 <LCD_4_SendEnable_Signal+0x1fa>
		__ticks = 1;
	else if (__tmp2 > 65535)
	{
		_delay_ms(__us / 1000.0);
	}
	else if (__tmp > 255)
    16cc:	20 e0       	ldi	r18, 0x00	; 0
    16ce:	30 e0       	ldi	r19, 0x00	; 0
    16d0:	4f e7       	ldi	r20, 0x7F	; 127
    16d2:	53 e4       	ldi	r21, 0x43	; 67
    16d4:	6d 81       	ldd	r22, Y+5	; 0x05
    16d6:	7e 81       	ldd	r23, Y+6	; 0x06
    16d8:	8f 81       	ldd	r24, Y+7	; 0x07
    16da:	98 85       	ldd	r25, Y+8	; 0x08
    16dc:	0e 94 41 11 	call	0x2282	; 0x2282 <__gesf2>
    16e0:	18 16       	cp	r1, r24
    16e2:	ac f4       	brge	.+42     	; 0x170e <LCD_4_SendEnable_Signal+0x1e8>
	{
		uint16_t __ticks=(uint16_t)__tmp2;
    16e4:	69 85       	ldd	r22, Y+9	; 0x09
    16e6:	7a 85       	ldd	r23, Y+10	; 0x0a
    16e8:	8b 85       	ldd	r24, Y+11	; 0x0b
    16ea:	9c 85       	ldd	r25, Y+12	; 0x0c
    16ec:	0e 94 9d 10 	call	0x213a	; 0x213a <__fixunssfsi>
    16f0:	dc 01       	movw	r26, r24
    16f2:	cb 01       	movw	r24, r22
    16f4:	9d 8f       	std	Y+29, r25	; 0x1d
    16f6:	8c 8f       	std	Y+28, r24	; 0x1c
    16f8:	8c 8d       	ldd	r24, Y+28	; 0x1c
    16fa:	9d 8d       	ldd	r25, Y+29	; 0x1d
    16fc:	9f 8f       	std	Y+31, r25	; 0x1f
    16fe:	8e 8f       	std	Y+30, r24	; 0x1e
    1700:	8e 8d       	ldd	r24, Y+30	; 0x1e
    1702:	9f 8d       	ldd	r25, Y+31	; 0x1f
    1704:	01 97       	sbiw	r24, 0x01	; 1
    1706:	f1 f7       	brne	.-4      	; 0x1704 <LCD_4_SendEnable_Signal+0x1de>
    1708:	9f 8f       	std	Y+31, r25	; 0x1f
    170a:	8e 8f       	std	Y+30, r24	; 0x1e
    170c:	0f c0       	rjmp	.+30     	; 0x172c <LCD_4_SendEnable_Signal+0x206>
		_delay_loop_2(__ticks);
		return;
	}
	else
		__ticks = (uint8_t)__tmp;
    170e:	6d 81       	ldd	r22, Y+5	; 0x05
    1710:	7e 81       	ldd	r23, Y+6	; 0x06
    1712:	8f 81       	ldd	r24, Y+7	; 0x07
    1714:	98 85       	ldd	r25, Y+8	; 0x08
    1716:	0e 94 9d 10 	call	0x213a	; 0x213a <__fixunssfsi>
    171a:	dc 01       	movw	r26, r24
    171c:	cb 01       	movw	r24, r22
    171e:	8d 87       	std	Y+13, r24	; 0x0d
    1720:	8d 85       	ldd	r24, Y+13	; 0x0d
    1722:	88 a3       	std	Y+32, r24	; 0x20
    can be achieved.
*/
void
_delay_loop_1(uint8_t __count)
{
	__asm__ volatile (
    1724:	88 a1       	ldd	r24, Y+32	; 0x20
    1726:	8a 95       	dec	r24
    1728:	f1 f7       	brne	.-4      	; 0x1726 <LCD_4_SendEnable_Signal+0x200>
    172a:	88 a3       	std	Y+32, r24	; 0x20
	_delay_us(5);
	Dio_setPinVal(CopyLCD.E, Status_Pin_Low);
    172c:	8a a1       	ldd	r24, Y+34	; 0x22
    172e:	60 e0       	ldi	r22, 0x00	; 0
    1730:	0e 94 28 02 	call	0x450	; 0x450 <Dio_setPinVal>
}
    1734:	00 00       	nop
    1736:	a6 96       	adiw	r28, 0x26	; 38
    1738:	0f b6       	in	r0, 0x3f	; 63
    173a:	f8 94       	cli
    173c:	de bf       	out	0x3e, r29	; 62
    173e:	0f be       	out	0x3f, r0	; 63
    1740:	cd bf       	out	0x3d, r28	; 61
    1742:	df 91       	pop	r29
    1744:	cf 91       	pop	r28
    1746:	08 95       	ret

00001748 <LCD_4_SetCursor_Position>:
  * @param  : CopyLCD
  * @param  : CopyRow
  * @param  : CopyCoulmn
  */
static void LCD_4_SetCursor_Position(LCD_4_MODE CopyLCD , u8 CopyRow , u8 CopyCoulmn)
{
    1748:	0f 93       	push	r16
    174a:	cf 93       	push	r28
    174c:	df 93       	push	r29
    174e:	cd b7       	in	r28, 0x3d	; 61
    1750:	de b7       	in	r29, 0x3e	; 62
    1752:	28 97       	sbiw	r28, 0x08	; 8
    1754:	0f b6       	in	r0, 0x3f	; 63
    1756:	f8 94       	cli
    1758:	de bf       	out	0x3e, r29	; 62
    175a:	0f be       	out	0x3f, r0	; 63
    175c:	cd bf       	out	0x3d, r28	; 61
    175e:	49 83       	std	Y+1, r20	; 0x01
    1760:	5a 83       	std	Y+2, r21	; 0x02
    1762:	6b 83       	std	Y+3, r22	; 0x03
    1764:	7c 83       	std	Y+4, r23	; 0x04
    1766:	8d 83       	std	Y+5, r24	; 0x05
    1768:	9e 83       	std	Y+6, r25	; 0x06
    176a:	2f 83       	std	Y+7, r18	; 0x07
    176c:	08 87       	std	Y+8, r16	; 0x08
	CopyCoulmn--;
    176e:	88 85       	ldd	r24, Y+8	; 0x08
    1770:	81 50       	subi	r24, 0x01	; 1
    1772:	88 87       	std	Y+8, r24	; 0x08
	switch (CopyRow) {
    1774:	8f 81       	ldd	r24, Y+7	; 0x07
    1776:	88 2f       	mov	r24, r24
    1778:	90 e0       	ldi	r25, 0x00	; 0
    177a:	82 30       	cpi	r24, 0x02	; 2
    177c:	91 05       	cpc	r25, r1
    177e:	c1 f0       	breq	.+48     	; 0x17b0 <LCD_4_SetCursor_Position+0x68>
    1780:	83 30       	cpi	r24, 0x03	; 3
    1782:	91 05       	cpc	r25, r1
    1784:	1c f4       	brge	.+6      	; 0x178c <LCD_4_SetCursor_Position+0x44>
    1786:	01 97       	sbiw	r24, 0x01	; 1
    1788:	39 f0       	breq	.+14     	; 0x1798 <LCD_4_SetCursor_Position+0x50>
		case Row_1 : LCD_4_CMD_Write(CopyLCD, (0x80 + CopyCoulmn)); break;
		case Row_2 : LCD_4_CMD_Write(CopyLCD, (0xc0 + CopyCoulmn)); break;
		case Row_3 : LCD_4_CMD_Write(CopyLCD, (0x90 + CopyCoulmn)); break;
		case Row_4 : LCD_4_CMD_Write(CopyLCD, (0xd0 + CopyCoulmn)); break;
		default: break;
    178a:	36 c0       	rjmp	.+108    	; 0x17f8 <LCD_4_SetCursor_Position+0xb0>
  * @param  : CopyCoulmn
  */
static void LCD_4_SetCursor_Position(LCD_4_MODE CopyLCD , u8 CopyRow , u8 CopyCoulmn)
{
	CopyCoulmn--;
	switch (CopyRow) {
    178c:	83 30       	cpi	r24, 0x03	; 3
    178e:	91 05       	cpc	r25, r1
    1790:	d9 f0       	breq	.+54     	; 0x17c8 <LCD_4_SetCursor_Position+0x80>
    1792:	04 97       	sbiw	r24, 0x04	; 4
    1794:	29 f1       	breq	.+74     	; 0x17e0 <LCD_4_SetCursor_Position+0x98>
		case Row_1 : LCD_4_CMD_Write(CopyLCD, (0x80 + CopyCoulmn)); break;
		case Row_2 : LCD_4_CMD_Write(CopyLCD, (0xc0 + CopyCoulmn)); break;
		case Row_3 : LCD_4_CMD_Write(CopyLCD, (0x90 + CopyCoulmn)); break;
		case Row_4 : LCD_4_CMD_Write(CopyLCD, (0xd0 + CopyCoulmn)); break;
		default: break;
    1796:	30 c0       	rjmp	.+96     	; 0x17f8 <LCD_4_SetCursor_Position+0xb0>
  */
static void LCD_4_SetCursor_Position(LCD_4_MODE CopyLCD , u8 CopyRow , u8 CopyCoulmn)
{
	CopyCoulmn--;
	switch (CopyRow) {
		case Row_1 : LCD_4_CMD_Write(CopyLCD, (0x80 + CopyCoulmn)); break;
    1798:	88 85       	ldd	r24, Y+8	; 0x08
    179a:	80 58       	subi	r24, 0x80	; 128
    179c:	28 2f       	mov	r18, r24
    179e:	49 81       	ldd	r20, Y+1	; 0x01
    17a0:	5a 81       	ldd	r21, Y+2	; 0x02
    17a2:	6b 81       	ldd	r22, Y+3	; 0x03
    17a4:	7c 81       	ldd	r23, Y+4	; 0x04
    17a6:	8d 81       	ldd	r24, Y+5	; 0x05
    17a8:	9e 81       	ldd	r25, Y+6	; 0x06
    17aa:	0e 94 86 08 	call	0x110c	; 0x110c <LCD_4_CMD_Write>
    17ae:	24 c0       	rjmp	.+72     	; 0x17f8 <LCD_4_SetCursor_Position+0xb0>
		case Row_2 : LCD_4_CMD_Write(CopyLCD, (0xc0 + CopyCoulmn)); break;
    17b0:	88 85       	ldd	r24, Y+8	; 0x08
    17b2:	80 54       	subi	r24, 0x40	; 64
    17b4:	28 2f       	mov	r18, r24
    17b6:	49 81       	ldd	r20, Y+1	; 0x01
    17b8:	5a 81       	ldd	r21, Y+2	; 0x02
    17ba:	6b 81       	ldd	r22, Y+3	; 0x03
    17bc:	7c 81       	ldd	r23, Y+4	; 0x04
    17be:	8d 81       	ldd	r24, Y+5	; 0x05
    17c0:	9e 81       	ldd	r25, Y+6	; 0x06
    17c2:	0e 94 86 08 	call	0x110c	; 0x110c <LCD_4_CMD_Write>
    17c6:	18 c0       	rjmp	.+48     	; 0x17f8 <LCD_4_SetCursor_Position+0xb0>
		case Row_3 : LCD_4_CMD_Write(CopyLCD, (0x90 + CopyCoulmn)); break;
    17c8:	88 85       	ldd	r24, Y+8	; 0x08
    17ca:	80 57       	subi	r24, 0x70	; 112
    17cc:	28 2f       	mov	r18, r24
    17ce:	49 81       	ldd	r20, Y+1	; 0x01
    17d0:	5a 81       	ldd	r21, Y+2	; 0x02
    17d2:	6b 81       	ldd	r22, Y+3	; 0x03
    17d4:	7c 81       	ldd	r23, Y+4	; 0x04
    17d6:	8d 81       	ldd	r24, Y+5	; 0x05
    17d8:	9e 81       	ldd	r25, Y+6	; 0x06
    17da:	0e 94 86 08 	call	0x110c	; 0x110c <LCD_4_CMD_Write>
    17de:	0c c0       	rjmp	.+24     	; 0x17f8 <LCD_4_SetCursor_Position+0xb0>
		case Row_4 : LCD_4_CMD_Write(CopyLCD, (0xd0 + CopyCoulmn)); break;
    17e0:	88 85       	ldd	r24, Y+8	; 0x08
    17e2:	80 53       	subi	r24, 0x30	; 48
    17e4:	28 2f       	mov	r18, r24
    17e6:	49 81       	ldd	r20, Y+1	; 0x01
    17e8:	5a 81       	ldd	r21, Y+2	; 0x02
    17ea:	6b 81       	ldd	r22, Y+3	; 0x03
    17ec:	7c 81       	ldd	r23, Y+4	; 0x04
    17ee:	8d 81       	ldd	r24, Y+5	; 0x05
    17f0:	9e 81       	ldd	r25, Y+6	; 0x06
    17f2:	0e 94 86 08 	call	0x110c	; 0x110c <LCD_4_CMD_Write>
    17f6:	00 00       	nop
		default: break;
	}
}
    17f8:	00 00       	nop
    17fa:	28 96       	adiw	r28, 0x08	; 8
    17fc:	0f b6       	in	r0, 0x3f	; 63
    17fe:	f8 94       	cli
    1800:	de bf       	out	0x3e, r29	; 62
    1802:	0f be       	out	0x3f, r0	; 63
    1804:	cd bf       	out	0x3d, r28	; 61
    1806:	df 91       	pop	r29
    1808:	cf 91       	pop	r28
    180a:	0f 91       	pop	r16
    180c:	08 95       	ret

0000180e <KeyPad_Init>:
/**
  * @brief  : Initialization KeyPad Pins
  * @param  : CopyKeyPad
  */
void KeyPad_Init(KeyPad CopyKeyPad)
{
    180e:	cf 93       	push	r28
    1810:	df 93       	push	r29
    1812:	cd b7       	in	r28, 0x3d	; 61
    1814:	de b7       	in	r29, 0x3e	; 62
    1816:	2a 97       	sbiw	r28, 0x0a	; 10
    1818:	0f b6       	in	r0, 0x3f	; 63
    181a:	f8 94       	cli
    181c:	de bf       	out	0x3e, r29	; 62
    181e:	0f be       	out	0x3f, r0	; 63
    1820:	cd bf       	out	0x3d, r28	; 61
    1822:	2b 83       	std	Y+3, r18	; 0x03
    1824:	3c 83       	std	Y+4, r19	; 0x04
    1826:	4d 83       	std	Y+5, r20	; 0x05
    1828:	5e 83       	std	Y+6, r21	; 0x06
    182a:	6f 83       	std	Y+7, r22	; 0x07
    182c:	78 87       	std	Y+8, r23	; 0x08
    182e:	89 87       	std	Y+9, r24	; 0x09
    1830:	9a 87       	std	Y+10, r25	; 0x0a
	u8 Rows_Counter = Initial_Counter ;
    1832:	19 82       	std	Y+1, r1	; 0x01
	u8 Columns_Counter = Initial_Counter;
    1834:	1a 82       	std	Y+2, r1	; 0x02

	for(Rows_Counter = Initial_Counter ; Rows_Counter < KeyPad_Rows; Rows_Counter++)
    1836:	19 82       	std	Y+1, r1	; 0x01
    1838:	10 c0       	rjmp	.+32     	; 0x185a <KeyPad_Init+0x4c>
	{
		Dio_setPinDir(CopyKeyPad.Pins_Row[Rows_Counter],Direction_Pin_Output);
    183a:	89 81       	ldd	r24, Y+1	; 0x01
    183c:	88 2f       	mov	r24, r24
    183e:	90 e0       	ldi	r25, 0x00	; 0
    1840:	9e 01       	movw	r18, r28
    1842:	2d 5f       	subi	r18, 0xFD	; 253
    1844:	3f 4f       	sbci	r19, 0xFF	; 255
    1846:	82 0f       	add	r24, r18
    1848:	93 1f       	adc	r25, r19
    184a:	fc 01       	movw	r30, r24
    184c:	80 81       	ld	r24, Z
    184e:	61 e0       	ldi	r22, 0x01	; 1
    1850:	0e 94 b4 01 	call	0x368	; 0x368 <Dio_setPinDir>
void KeyPad_Init(KeyPad CopyKeyPad)
{
	u8 Rows_Counter = Initial_Counter ;
	u8 Columns_Counter = Initial_Counter;

	for(Rows_Counter = Initial_Counter ; Rows_Counter < KeyPad_Rows; Rows_Counter++)
    1854:	89 81       	ldd	r24, Y+1	; 0x01
    1856:	8f 5f       	subi	r24, 0xFF	; 255
    1858:	89 83       	std	Y+1, r24	; 0x01
    185a:	89 81       	ldd	r24, Y+1	; 0x01
    185c:	84 30       	cpi	r24, 0x04	; 4
    185e:	68 f3       	brcs	.-38     	; 0x183a <KeyPad_Init+0x2c>
	{
		Dio_setPinDir(CopyKeyPad.Pins_Row[Rows_Counter],Direction_Pin_Output);
//		Dio_setPinVal(CopyKeyPad.Pins_Row[Rows_Counter], Status_Pin_Low);
	}

	for(Columns_Counter = Initial_Counter ; Columns_Counter < KeyPad_Coulmn; Columns_Counter++)
    1860:	1a 82       	std	Y+2, r1	; 0x02
    1862:	10 c0       	rjmp	.+32     	; 0x1884 <KeyPad_Init+0x76>
	{
		Dio_setPinDir(CopyKeyPad.Pins_Coulmn[Columns_Counter],Direction_Pin_Input);
    1864:	8a 81       	ldd	r24, Y+2	; 0x02
    1866:	88 2f       	mov	r24, r24
    1868:	90 e0       	ldi	r25, 0x00	; 0
    186a:	9e 01       	movw	r18, r28
    186c:	29 5f       	subi	r18, 0xF9	; 249
    186e:	3f 4f       	sbci	r19, 0xFF	; 255
    1870:	82 0f       	add	r24, r18
    1872:	93 1f       	adc	r25, r19
    1874:	fc 01       	movw	r30, r24
    1876:	80 81       	ld	r24, Z
    1878:	60 e0       	ldi	r22, 0x00	; 0
    187a:	0e 94 b4 01 	call	0x368	; 0x368 <Dio_setPinDir>
	{
		Dio_setPinDir(CopyKeyPad.Pins_Row[Rows_Counter],Direction_Pin_Output);
//		Dio_setPinVal(CopyKeyPad.Pins_Row[Rows_Counter], Status_Pin_Low);
	}

	for(Columns_Counter = Initial_Counter ; Columns_Counter < KeyPad_Coulmn; Columns_Counter++)
    187e:	8a 81       	ldd	r24, Y+2	; 0x02
    1880:	8f 5f       	subi	r24, 0xFF	; 255
    1882:	8a 83       	std	Y+2, r24	; 0x02
    1884:	8a 81       	ldd	r24, Y+2	; 0x02
    1886:	84 30       	cpi	r24, 0x04	; 4
    1888:	68 f3       	brcs	.-38     	; 0x1864 <KeyPad_Init+0x56>
	{
		Dio_setPinDir(CopyKeyPad.Pins_Coulmn[Columns_Counter],Direction_Pin_Input);
	}
}
    188a:	00 00       	nop
    188c:	2a 96       	adiw	r28, 0x0a	; 10
    188e:	0f b6       	in	r0, 0x3f	; 63
    1890:	f8 94       	cli
    1892:	de bf       	out	0x3e, r29	; 62
    1894:	0f be       	out	0x3f, r0	; 63
    1896:	cd bf       	out	0x3d, r28	; 61
    1898:	df 91       	pop	r29
    189a:	cf 91       	pop	r28
    189c:	08 95       	ret

0000189e <KeyPad_getValue>:
  * @brief  : Get Value From KeyPad Pins And Store It In CopyValue
  * @param  : CopyKeyPad
  * @param  : CopyValue
  */
void KeyPad_getValue(KeyPad CopyKeyPad, u8 *CopyValue)
{
    189e:	0f 93       	push	r16
    18a0:	1f 93       	push	r17
    18a2:	cf 93       	push	r28
    18a4:	df 93       	push	r29
    18a6:	cd b7       	in	r28, 0x3d	; 61
    18a8:	de b7       	in	r29, 0x3e	; 62
    18aa:	aa 97       	sbiw	r28, 0x2a	; 42
    18ac:	0f b6       	in	r0, 0x3f	; 63
    18ae:	f8 94       	cli
    18b0:	de bf       	out	0x3e, r29	; 62
    18b2:	0f be       	out	0x3f, r0	; 63
    18b4:	cd bf       	out	0x3d, r28	; 61
    18b6:	29 a3       	std	Y+33, r18	; 0x21
    18b8:	3a a3       	std	Y+34, r19	; 0x22
    18ba:	4b a3       	std	Y+35, r20	; 0x23
    18bc:	5c a3       	std	Y+36, r21	; 0x24
    18be:	6d a3       	std	Y+37, r22	; 0x25
    18c0:	7e a3       	std	Y+38, r23	; 0x26
    18c2:	8f a3       	std	Y+39, r24	; 0x27
    18c4:	98 a7       	std	Y+40, r25	; 0x28
    18c6:	1a a7       	std	Y+42, r17	; 0x2a
    18c8:	09 a7       	std	Y+41, r16	; 0x29
	u8 Rows_Counter = Initial_Counter ;
    18ca:	19 82       	std	Y+1, r1	; 0x01
	u8 Columns_Counter = Initial_Counter;
    18cc:	1a 82       	std	Y+2, r1	; 0x02
	u8 Counter_1 = Initial_Counter;
    18ce:	1b 82       	std	Y+3, r1	; 0x03
	u8 Logic_Value = Initial_Counter;
    18d0:	1c 82       	std	Y+4, r1	; 0x04

	for(Rows_Counter = Initial_Counter ; Rows_Counter < KeyPad_Rows; Rows_Counter++)
    18d2:	19 82       	std	Y+1, r1	; 0x01
    18d4:	34 c1       	rjmp	.+616    	; 0x1b3e <KeyPad_getValue+0x2a0>
	{
		for(Counter_1 = Initial_Counter ; Counter_1 < KeyPad_Rows ; Counter_1++)
    18d6:	1b 82       	std	Y+3, r1	; 0x03
    18d8:	10 c0       	rjmp	.+32     	; 0x18fa <KeyPad_getValue+0x5c>
		{
			Dio_setPinVal(CopyKeyPad.Pins_Row[Counter_1], Status_Pin_Low);
    18da:	8b 81       	ldd	r24, Y+3	; 0x03
    18dc:	88 2f       	mov	r24, r24
    18de:	90 e0       	ldi	r25, 0x00	; 0
    18e0:	9e 01       	movw	r18, r28
    18e2:	2f 5d       	subi	r18, 0xDF	; 223
    18e4:	3f 4f       	sbci	r19, 0xFF	; 255
    18e6:	82 0f       	add	r24, r18
    18e8:	93 1f       	adc	r25, r19
    18ea:	fc 01       	movw	r30, r24
    18ec:	80 81       	ld	r24, Z
    18ee:	60 e0       	ldi	r22, 0x00	; 0
    18f0:	0e 94 28 02 	call	0x450	; 0x450 <Dio_setPinVal>
	u8 Counter_1 = Initial_Counter;
	u8 Logic_Value = Initial_Counter;

	for(Rows_Counter = Initial_Counter ; Rows_Counter < KeyPad_Rows; Rows_Counter++)
	{
		for(Counter_1 = Initial_Counter ; Counter_1 < KeyPad_Rows ; Counter_1++)
    18f4:	8b 81       	ldd	r24, Y+3	; 0x03
    18f6:	8f 5f       	subi	r24, 0xFF	; 255
    18f8:	8b 83       	std	Y+3, r24	; 0x03
    18fa:	8b 81       	ldd	r24, Y+3	; 0x03
    18fc:	84 30       	cpi	r24, 0x04	; 4
    18fe:	68 f3       	brcs	.-38     	; 0x18da <KeyPad_getValue+0x3c>
		{
			Dio_setPinVal(CopyKeyPad.Pins_Row[Counter_1], Status_Pin_Low);
		}

		Dio_setPinVal(CopyKeyPad.Pins_Row[Rows_Counter], Status_Pin_High);
    1900:	89 81       	ldd	r24, Y+1	; 0x01
    1902:	88 2f       	mov	r24, r24
    1904:	90 e0       	ldi	r25, 0x00	; 0
    1906:	9e 01       	movw	r18, r28
    1908:	2f 5d       	subi	r18, 0xDF	; 223
    190a:	3f 4f       	sbci	r19, 0xFF	; 255
    190c:	82 0f       	add	r24, r18
    190e:	93 1f       	adc	r25, r19
    1910:	fc 01       	movw	r30, r24
    1912:	80 81       	ld	r24, Z
    1914:	61 e0       	ldi	r22, 0x01	; 1
    1916:	0e 94 28 02 	call	0x450	; 0x450 <Dio_setPinVal>
    191a:	80 e0       	ldi	r24, 0x00	; 0
    191c:	90 e0       	ldi	r25, 0x00	; 0
    191e:	a8 e4       	ldi	r26, 0x48	; 72
    1920:	b2 e4       	ldi	r27, 0x42	; 66
    1922:	8d 83       	std	Y+5, r24	; 0x05
    1924:	9e 83       	std	Y+6, r25	; 0x06
    1926:	af 83       	std	Y+7, r26	; 0x07
    1928:	b8 87       	std	Y+8, r27	; 0x08

	__builtin_avr_delay_cycles(__ticks_dc);

#else
	uint16_t __ticks;
	__tmp = ((F_CPU) / 4e3) * __ms;
    192a:	20 e0       	ldi	r18, 0x00	; 0
    192c:	30 e0       	ldi	r19, 0x00	; 0
    192e:	4a e7       	ldi	r20, 0x7A	; 122
    1930:	53 e4       	ldi	r21, 0x43	; 67
    1932:	6d 81       	ldd	r22, Y+5	; 0x05
    1934:	7e 81       	ldd	r23, Y+6	; 0x06
    1936:	8f 81       	ldd	r24, Y+7	; 0x07
    1938:	98 85       	ldd	r25, Y+8	; 0x08
    193a:	0e 94 46 11 	call	0x228c	; 0x228c <__mulsf3>
    193e:	dc 01       	movw	r26, r24
    1940:	cb 01       	movw	r24, r22
    1942:	89 87       	std	Y+9, r24	; 0x09
    1944:	9a 87       	std	Y+10, r25	; 0x0a
    1946:	ab 87       	std	Y+11, r26	; 0x0b
    1948:	bc 87       	std	Y+12, r27	; 0x0c
	if (__tmp < 1.0)
    194a:	20 e0       	ldi	r18, 0x00	; 0
    194c:	30 e0       	ldi	r19, 0x00	; 0
    194e:	40 e8       	ldi	r20, 0x80	; 128
    1950:	5f e3       	ldi	r21, 0x3F	; 63
    1952:	69 85       	ldd	r22, Y+9	; 0x09
    1954:	7a 85       	ldd	r23, Y+10	; 0x0a
    1956:	8b 85       	ldd	r24, Y+11	; 0x0b
    1958:	9c 85       	ldd	r25, Y+12	; 0x0c
    195a:	0e 94 26 10 	call	0x204c	; 0x204c <__cmpsf2>
    195e:	88 23       	and	r24, r24
    1960:	2c f4       	brge	.+10     	; 0x196c <KeyPad_getValue+0xce>
		__ticks = 1;
    1962:	81 e0       	ldi	r24, 0x01	; 1
    1964:	90 e0       	ldi	r25, 0x00	; 0
    1966:	9e 87       	std	Y+14, r25	; 0x0e
    1968:	8d 87       	std	Y+13, r24	; 0x0d
    196a:	3f c0       	rjmp	.+126    	; 0x19ea <KeyPad_getValue+0x14c>
	else if (__tmp > 65535)
    196c:	20 e0       	ldi	r18, 0x00	; 0
    196e:	3f ef       	ldi	r19, 0xFF	; 255
    1970:	4f e7       	ldi	r20, 0x7F	; 127
    1972:	57 e4       	ldi	r21, 0x47	; 71
    1974:	69 85       	ldd	r22, Y+9	; 0x09
    1976:	7a 85       	ldd	r23, Y+10	; 0x0a
    1978:	8b 85       	ldd	r24, Y+11	; 0x0b
    197a:	9c 85       	ldd	r25, Y+12	; 0x0c
    197c:	0e 94 41 11 	call	0x2282	; 0x2282 <__gesf2>
    1980:	18 16       	cp	r1, r24
    1982:	4c f5       	brge	.+82     	; 0x19d6 <KeyPad_getValue+0x138>
	{
		//	__ticks = requested delay in 1/10 ms
		__ticks = (uint16_t) (__ms * 10.0);
    1984:	20 e0       	ldi	r18, 0x00	; 0
    1986:	30 e0       	ldi	r19, 0x00	; 0
    1988:	40 e2       	ldi	r20, 0x20	; 32
    198a:	51 e4       	ldi	r21, 0x41	; 65
    198c:	6d 81       	ldd	r22, Y+5	; 0x05
    198e:	7e 81       	ldd	r23, Y+6	; 0x06
    1990:	8f 81       	ldd	r24, Y+7	; 0x07
    1992:	98 85       	ldd	r25, Y+8	; 0x08
    1994:	0e 94 46 11 	call	0x228c	; 0x228c <__mulsf3>
    1998:	dc 01       	movw	r26, r24
    199a:	cb 01       	movw	r24, r22
    199c:	bc 01       	movw	r22, r24
    199e:	cd 01       	movw	r24, r26
    19a0:	0e 94 9d 10 	call	0x213a	; 0x213a <__fixunssfsi>
    19a4:	dc 01       	movw	r26, r24
    19a6:	cb 01       	movw	r24, r22
    19a8:	9e 87       	std	Y+14, r25	; 0x0e
    19aa:	8d 87       	std	Y+13, r24	; 0x0d
    19ac:	0f c0       	rjmp	.+30     	; 0x19cc <KeyPad_getValue+0x12e>
    19ae:	89 e1       	ldi	r24, 0x19	; 25
    19b0:	90 e0       	ldi	r25, 0x00	; 0
    19b2:	98 8b       	std	Y+16, r25	; 0x10
    19b4:	8f 87       	std	Y+15, r24	; 0x0f
    milliseconds can be achieved.
 */
void
_delay_loop_2(uint16_t __count)
{
	__asm__ volatile (
    19b6:	8f 85       	ldd	r24, Y+15	; 0x0f
    19b8:	98 89       	ldd	r25, Y+16	; 0x10
    19ba:	01 97       	sbiw	r24, 0x01	; 1
    19bc:	f1 f7       	brne	.-4      	; 0x19ba <KeyPad_getValue+0x11c>
    19be:	98 8b       	std	Y+16, r25	; 0x10
    19c0:	8f 87       	std	Y+15, r24	; 0x0f
		while(__ticks)
		{
			// wait 1/10 ms
			_delay_loop_2(((F_CPU) / 4e3) / 10);
			__ticks --;
    19c2:	8d 85       	ldd	r24, Y+13	; 0x0d
    19c4:	9e 85       	ldd	r25, Y+14	; 0x0e
    19c6:	01 97       	sbiw	r24, 0x01	; 1
    19c8:	9e 87       	std	Y+14, r25	; 0x0e
    19ca:	8d 87       	std	Y+13, r24	; 0x0d
		__ticks = 1;
	else if (__tmp > 65535)
	{
		//	__ticks = requested delay in 1/10 ms
		__ticks = (uint16_t) (__ms * 10.0);
		while(__ticks)
    19cc:	8d 85       	ldd	r24, Y+13	; 0x0d
    19ce:	9e 85       	ldd	r25, Y+14	; 0x0e
    19d0:	89 2b       	or	r24, r25
    19d2:	69 f7       	brne	.-38     	; 0x19ae <KeyPad_getValue+0x110>
    19d4:	14 c0       	rjmp	.+40     	; 0x19fe <KeyPad_getValue+0x160>
			__ticks --;
		}
		return;
	}
	else
		__ticks = (uint16_t)__tmp;
    19d6:	69 85       	ldd	r22, Y+9	; 0x09
    19d8:	7a 85       	ldd	r23, Y+10	; 0x0a
    19da:	8b 85       	ldd	r24, Y+11	; 0x0b
    19dc:	9c 85       	ldd	r25, Y+12	; 0x0c
    19de:	0e 94 9d 10 	call	0x213a	; 0x213a <__fixunssfsi>
    19e2:	dc 01       	movw	r26, r24
    19e4:	cb 01       	movw	r24, r22
    19e6:	9e 87       	std	Y+14, r25	; 0x0e
    19e8:	8d 87       	std	Y+13, r24	; 0x0d
    19ea:	8d 85       	ldd	r24, Y+13	; 0x0d
    19ec:	9e 85       	ldd	r25, Y+14	; 0x0e
    19ee:	9a 8b       	std	Y+18, r25	; 0x12
    19f0:	89 8b       	std	Y+17, r24	; 0x11
    19f2:	89 89       	ldd	r24, Y+17	; 0x11
    19f4:	9a 89       	ldd	r25, Y+18	; 0x12
    19f6:	01 97       	sbiw	r24, 0x01	; 1
    19f8:	f1 f7       	brne	.-4      	; 0x19f6 <KeyPad_getValue+0x158>
    19fa:	9a 8b       	std	Y+18, r25	; 0x12
    19fc:	89 8b       	std	Y+17, r24	; 0x11
		_delay_ms(50);
		for(Columns_Counter = Initial_Counter ; Columns_Counter < KeyPad_Coulmn; Columns_Counter++)
    19fe:	1a 82       	std	Y+2, r1	; 0x02
    1a00:	97 c0       	rjmp	.+302    	; 0x1b30 <KeyPad_getValue+0x292>
		{
			Dio_getPinVal(CopyKeyPad.Pins_Coulmn[Columns_Counter]);
    1a02:	8a 81       	ldd	r24, Y+2	; 0x02
    1a04:	88 2f       	mov	r24, r24
    1a06:	90 e0       	ldi	r25, 0x00	; 0
    1a08:	9e 01       	movw	r18, r28
    1a0a:	2b 5d       	subi	r18, 0xDB	; 219
    1a0c:	3f 4f       	sbci	r19, 0xFF	; 255
    1a0e:	82 0f       	add	r24, r18
    1a10:	93 1f       	adc	r25, r19
    1a12:	fc 01       	movw	r30, r24
    1a14:	80 81       	ld	r24, Z
    1a16:	0e 94 d0 02 	call	0x5a0	; 0x5a0 <Dio_getPinVal>
    1a1a:	80 e0       	ldi	r24, 0x00	; 0
    1a1c:	90 e0       	ldi	r25, 0x00	; 0
    1a1e:	a8 e4       	ldi	r26, 0x48	; 72
    1a20:	b2 e4       	ldi	r27, 0x42	; 66
    1a22:	8b 8b       	std	Y+19, r24	; 0x13
    1a24:	9c 8b       	std	Y+20, r25	; 0x14
    1a26:	ad 8b       	std	Y+21, r26	; 0x15
    1a28:	be 8b       	std	Y+22, r27	; 0x16

	__builtin_avr_delay_cycles(__ticks_dc);

#else
	uint16_t __ticks;
	__tmp = ((F_CPU) / 4e3) * __ms;
    1a2a:	20 e0       	ldi	r18, 0x00	; 0
    1a2c:	30 e0       	ldi	r19, 0x00	; 0
    1a2e:	4a e7       	ldi	r20, 0x7A	; 122
    1a30:	53 e4       	ldi	r21, 0x43	; 67
    1a32:	6b 89       	ldd	r22, Y+19	; 0x13
    1a34:	7c 89       	ldd	r23, Y+20	; 0x14
    1a36:	8d 89       	ldd	r24, Y+21	; 0x15
    1a38:	9e 89       	ldd	r25, Y+22	; 0x16
    1a3a:	0e 94 46 11 	call	0x228c	; 0x228c <__mulsf3>
    1a3e:	dc 01       	movw	r26, r24
    1a40:	cb 01       	movw	r24, r22
    1a42:	8f 8b       	std	Y+23, r24	; 0x17
    1a44:	98 8f       	std	Y+24, r25	; 0x18
    1a46:	a9 8f       	std	Y+25, r26	; 0x19
    1a48:	ba 8f       	std	Y+26, r27	; 0x1a
	if (__tmp < 1.0)
    1a4a:	20 e0       	ldi	r18, 0x00	; 0
    1a4c:	30 e0       	ldi	r19, 0x00	; 0
    1a4e:	40 e8       	ldi	r20, 0x80	; 128
    1a50:	5f e3       	ldi	r21, 0x3F	; 63
    1a52:	6f 89       	ldd	r22, Y+23	; 0x17
    1a54:	78 8d       	ldd	r23, Y+24	; 0x18
    1a56:	89 8d       	ldd	r24, Y+25	; 0x19
    1a58:	9a 8d       	ldd	r25, Y+26	; 0x1a
    1a5a:	0e 94 26 10 	call	0x204c	; 0x204c <__cmpsf2>
    1a5e:	88 23       	and	r24, r24
    1a60:	2c f4       	brge	.+10     	; 0x1a6c <KeyPad_getValue+0x1ce>
		__ticks = 1;
    1a62:	81 e0       	ldi	r24, 0x01	; 1
    1a64:	90 e0       	ldi	r25, 0x00	; 0
    1a66:	9c 8f       	std	Y+28, r25	; 0x1c
    1a68:	8b 8f       	std	Y+27, r24	; 0x1b
    1a6a:	3f c0       	rjmp	.+126    	; 0x1aea <KeyPad_getValue+0x24c>
	else if (__tmp > 65535)
    1a6c:	20 e0       	ldi	r18, 0x00	; 0
    1a6e:	3f ef       	ldi	r19, 0xFF	; 255
    1a70:	4f e7       	ldi	r20, 0x7F	; 127
    1a72:	57 e4       	ldi	r21, 0x47	; 71
    1a74:	6f 89       	ldd	r22, Y+23	; 0x17
    1a76:	78 8d       	ldd	r23, Y+24	; 0x18
    1a78:	89 8d       	ldd	r24, Y+25	; 0x19
    1a7a:	9a 8d       	ldd	r25, Y+26	; 0x1a
    1a7c:	0e 94 41 11 	call	0x2282	; 0x2282 <__gesf2>
    1a80:	18 16       	cp	r1, r24
    1a82:	4c f5       	brge	.+82     	; 0x1ad6 <KeyPad_getValue+0x238>
	{
		//	__ticks = requested delay in 1/10 ms
		__ticks = (uint16_t) (__ms * 10.0);
    1a84:	20 e0       	ldi	r18, 0x00	; 0
    1a86:	30 e0       	ldi	r19, 0x00	; 0
    1a88:	40 e2       	ldi	r20, 0x20	; 32
    1a8a:	51 e4       	ldi	r21, 0x41	; 65
    1a8c:	6b 89       	ldd	r22, Y+19	; 0x13
    1a8e:	7c 89       	ldd	r23, Y+20	; 0x14
    1a90:	8d 89       	ldd	r24, Y+21	; 0x15
    1a92:	9e 89       	ldd	r25, Y+22	; 0x16
    1a94:	0e 94 46 11 	call	0x228c	; 0x228c <__mulsf3>
    1a98:	dc 01       	movw	r26, r24
    1a9a:	cb 01       	movw	r24, r22
    1a9c:	bc 01       	movw	r22, r24
    1a9e:	cd 01       	movw	r24, r26
    1aa0:	0e 94 9d 10 	call	0x213a	; 0x213a <__fixunssfsi>
    1aa4:	dc 01       	movw	r26, r24
    1aa6:	cb 01       	movw	r24, r22
    1aa8:	9c 8f       	std	Y+28, r25	; 0x1c
    1aaa:	8b 8f       	std	Y+27, r24	; 0x1b
    1aac:	0f c0       	rjmp	.+30     	; 0x1acc <KeyPad_getValue+0x22e>
    1aae:	89 e1       	ldi	r24, 0x19	; 25
    1ab0:	90 e0       	ldi	r25, 0x00	; 0
    1ab2:	9e 8f       	std	Y+30, r25	; 0x1e
    1ab4:	8d 8f       	std	Y+29, r24	; 0x1d
    1ab6:	8d 8d       	ldd	r24, Y+29	; 0x1d
    1ab8:	9e 8d       	ldd	r25, Y+30	; 0x1e
    1aba:	01 97       	sbiw	r24, 0x01	; 1
    1abc:	f1 f7       	brne	.-4      	; 0x1aba <KeyPad_getValue+0x21c>
    1abe:	9e 8f       	std	Y+30, r25	; 0x1e
    1ac0:	8d 8f       	std	Y+29, r24	; 0x1d
		while(__ticks)
		{
			// wait 1/10 ms
			_delay_loop_2(((F_CPU) / 4e3) / 10);
			__ticks --;
    1ac2:	8b 8d       	ldd	r24, Y+27	; 0x1b
    1ac4:	9c 8d       	ldd	r25, Y+28	; 0x1c
    1ac6:	01 97       	sbiw	r24, 0x01	; 1
    1ac8:	9c 8f       	std	Y+28, r25	; 0x1c
    1aca:	8b 8f       	std	Y+27, r24	; 0x1b
		__ticks = 1;
	else if (__tmp > 65535)
	{
		//	__ticks = requested delay in 1/10 ms
		__ticks = (uint16_t) (__ms * 10.0);
		while(__ticks)
    1acc:	8b 8d       	ldd	r24, Y+27	; 0x1b
    1ace:	9c 8d       	ldd	r25, Y+28	; 0x1c
    1ad0:	89 2b       	or	r24, r25
    1ad2:	69 f7       	brne	.-38     	; 0x1aae <KeyPad_getValue+0x210>
    1ad4:	14 c0       	rjmp	.+40     	; 0x1afe <KeyPad_getValue+0x260>
			__ticks --;
		}
		return;
	}
	else
		__ticks = (uint16_t)__tmp;
    1ad6:	6f 89       	ldd	r22, Y+23	; 0x17
    1ad8:	78 8d       	ldd	r23, Y+24	; 0x18
    1ada:	89 8d       	ldd	r24, Y+25	; 0x19
    1adc:	9a 8d       	ldd	r25, Y+26	; 0x1a
    1ade:	0e 94 9d 10 	call	0x213a	; 0x213a <__fixunssfsi>
    1ae2:	dc 01       	movw	r26, r24
    1ae4:	cb 01       	movw	r24, r22
    1ae6:	9c 8f       	std	Y+28, r25	; 0x1c
    1ae8:	8b 8f       	std	Y+27, r24	; 0x1b
    1aea:	8b 8d       	ldd	r24, Y+27	; 0x1b
    1aec:	9c 8d       	ldd	r25, Y+28	; 0x1c
    1aee:	98 a3       	std	Y+32, r25	; 0x20
    1af0:	8f 8f       	std	Y+31, r24	; 0x1f
    1af2:	8f 8d       	ldd	r24, Y+31	; 0x1f
    1af4:	98 a1       	ldd	r25, Y+32	; 0x20
    1af6:	01 97       	sbiw	r24, 0x01	; 1
    1af8:	f1 f7       	brne	.-4      	; 0x1af6 <KeyPad_getValue+0x258>
    1afa:	98 a3       	std	Y+32, r25	; 0x20
    1afc:	8f 8f       	std	Y+31, r24	; 0x1f
			_delay_ms(50);

			if(Logic_Value == Status_Pin_High)
    1afe:	8c 81       	ldd	r24, Y+4	; 0x04
    1b00:	81 30       	cpi	r24, 0x01	; 1
    1b02:	99 f4       	brne	.+38     	; 0x1b2a <KeyPad_getValue+0x28c>
			{
				*CopyValue = &(Keypad_Buttons[Rows_Counter][Columns_Counter]);
    1b04:	89 81       	ldd	r24, Y+1	; 0x01
    1b06:	28 2f       	mov	r18, r24
    1b08:	30 e0       	ldi	r19, 0x00	; 0
    1b0a:	8a 81       	ldd	r24, Y+2	; 0x02
    1b0c:	88 2f       	mov	r24, r24
    1b0e:	90 e0       	ldi	r25, 0x00	; 0
    1b10:	22 0f       	add	r18, r18
    1b12:	33 1f       	adc	r19, r19
    1b14:	22 0f       	add	r18, r18
    1b16:	33 1f       	adc	r19, r19
    1b18:	82 0f       	add	r24, r18
    1b1a:	93 1f       	adc	r25, r19
    1b1c:	8a 57       	subi	r24, 0x7A	; 122
    1b1e:	9f 4f       	sbci	r25, 0xFF	; 255
    1b20:	28 2f       	mov	r18, r24
    1b22:	89 a5       	ldd	r24, Y+41	; 0x29
    1b24:	9a a5       	ldd	r25, Y+42	; 0x2a
    1b26:	fc 01       	movw	r30, r24
    1b28:	20 83       	st	Z, r18
			Dio_setPinVal(CopyKeyPad.Pins_Row[Counter_1], Status_Pin_Low);
		}

		Dio_setPinVal(CopyKeyPad.Pins_Row[Rows_Counter], Status_Pin_High);
		_delay_ms(50);
		for(Columns_Counter = Initial_Counter ; Columns_Counter < KeyPad_Coulmn; Columns_Counter++)
    1b2a:	8a 81       	ldd	r24, Y+2	; 0x02
    1b2c:	8f 5f       	subi	r24, 0xFF	; 255
    1b2e:	8a 83       	std	Y+2, r24	; 0x02
    1b30:	8a 81       	ldd	r24, Y+2	; 0x02
    1b32:	84 30       	cpi	r24, 0x04	; 4
    1b34:	08 f4       	brcc	.+2      	; 0x1b38 <KeyPad_getValue+0x29a>
    1b36:	65 cf       	rjmp	.-310    	; 0x1a02 <KeyPad_getValue+0x164>
	u8 Rows_Counter = Initial_Counter ;
	u8 Columns_Counter = Initial_Counter;
	u8 Counter_1 = Initial_Counter;
	u8 Logic_Value = Initial_Counter;

	for(Rows_Counter = Initial_Counter ; Rows_Counter < KeyPad_Rows; Rows_Counter++)
    1b38:	89 81       	ldd	r24, Y+1	; 0x01
    1b3a:	8f 5f       	subi	r24, 0xFF	; 255
    1b3c:	89 83       	std	Y+1, r24	; 0x01
    1b3e:	89 81       	ldd	r24, Y+1	; 0x01
    1b40:	84 30       	cpi	r24, 0x04	; 4
    1b42:	08 f4       	brcc	.+2      	; 0x1b46 <KeyPad_getValue+0x2a8>
    1b44:	c8 ce       	rjmp	.-624    	; 0x18d6 <KeyPad_getValue+0x38>
			{
				*CopyValue = &(Keypad_Buttons[Rows_Counter][Columns_Counter]);
			}
		}
	}
}
    1b46:	00 00       	nop
    1b48:	aa 96       	adiw	r28, 0x2a	; 42
    1b4a:	0f b6       	in	r0, 0x3f	; 63
    1b4c:	f8 94       	cli
    1b4e:	de bf       	out	0x3e, r29	; 62
    1b50:	0f be       	out	0x3f, r0	; 63
    1b52:	cd bf       	out	0x3d, r28	; 61
    1b54:	df 91       	pop	r29
    1b56:	cf 91       	pop	r28
    1b58:	1f 91       	pop	r17
    1b5a:	0f 91       	pop	r16
    1b5c:	08 95       	ret

00001b5e <App_Init>:
/********** SECTION : Global Area **********/
	u8 Temp_str[10] ;
	u8 Temp ;
/********** SECTION : Functions setUp Definitions **********/
void App_Init(void)
{
    1b5e:	cf 93       	push	r28
    1b60:	df 93       	push	r29
    1b62:	cd b7       	in	r28, 0x3d	; 61
    1b64:	de b7       	in	r29, 0x3e	; 62


}
    1b66:	00 00       	nop
    1b68:	df 91       	pop	r29
    1b6a:	cf 91       	pop	r28
    1b6c:	08 95       	ret

00001b6e <App_Loop>:
/********** SECTION : Functions Loop Definitions **********/
void App_Loop(void)
{
    1b6e:	cf 93       	push	r28
    1b70:	df 93       	push	r29
    1b72:	cd b7       	in	r28, 0x3d	; 61
    1b74:	de b7       	in	r29, 0x3e	; 62

}
    1b76:	00 00       	nop
    1b78:	df 91       	pop	r29
    1b7a:	cf 91       	pop	r28
    1b7c:	08 95       	ret

00001b7e <Motor_2_Motors_Init>:
  * @brief  : Initialization 2 Motor With Motor Driver
  * @param  : CopyMotor_1
  * @param  : CopyMotor_2
  */
void Motor_2_Motors_Init(motor1 CopyMotor_1,motor2 CopyMotor_2)
{
    1b7e:	cf 93       	push	r28
    1b80:	df 93       	push	r29
    1b82:	00 d0       	rcall	.+0      	; 0x1b84 <Motor_2_Motors_Init+0x6>
    1b84:	00 d0       	rcall	.+0      	; 0x1b86 <Motor_2_Motors_Init+0x8>
    1b86:	00 d0       	rcall	.+0      	; 0x1b88 <Motor_2_Motors_Init+0xa>
    1b88:	cd b7       	in	r28, 0x3d	; 61
    1b8a:	de b7       	in	r29, 0x3e	; 62
    1b8c:	69 83       	std	Y+1, r22	; 0x01
    1b8e:	7a 83       	std	Y+2, r23	; 0x02
    1b90:	8b 83       	std	Y+3, r24	; 0x03
    1b92:	2c 83       	std	Y+4, r18	; 0x04
    1b94:	3d 83       	std	Y+5, r19	; 0x05
    1b96:	4e 83       	std	Y+6, r20	; 0x06
	Dio_setPinDir(m1.IN1, Direction_Pin_Output);
    1b98:	80 91 96 00 	lds	r24, 0x0096	; 0x800096 <m1>
    1b9c:	61 e0       	ldi	r22, 0x01	; 1
    1b9e:	0e 94 b4 01 	call	0x368	; 0x368 <Dio_setPinDir>
	Dio_setPinDir(m1.IN2, Direction_Pin_Output);
    1ba2:	80 91 97 00 	lds	r24, 0x0097	; 0x800097 <m1+0x1>
    1ba6:	61 e0       	ldi	r22, 0x01	; 1
    1ba8:	0e 94 b4 01 	call	0x368	; 0x368 <Dio_setPinDir>
	Dio_setPinDir(m1.ENA, Direction_Pin_Output);
    1bac:	80 91 98 00 	lds	r24, 0x0098	; 0x800098 <m1+0x2>
    1bb0:	61 e0       	ldi	r22, 0x01	; 1
    1bb2:	0e 94 b4 01 	call	0x368	; 0x368 <Dio_setPinDir>


	Dio_setPinDir(m2.IN3, Direction_Pin_Output);
    1bb6:	80 91 99 00 	lds	r24, 0x0099	; 0x800099 <m2>
    1bba:	61 e0       	ldi	r22, 0x01	; 1
    1bbc:	0e 94 b4 01 	call	0x368	; 0x368 <Dio_setPinDir>
	Dio_setPinDir(m2.IN4, Direction_Pin_Output);
    1bc0:	80 91 9a 00 	lds	r24, 0x009A	; 0x80009a <m2+0x1>
    1bc4:	61 e0       	ldi	r22, 0x01	; 1
    1bc6:	0e 94 b4 01 	call	0x368	; 0x368 <Dio_setPinDir>
	Dio_setPinDir(m2.ENB, Direction_Pin_Output);
    1bca:	80 91 9b 00 	lds	r24, 0x009B	; 0x80009b <m2+0x2>
    1bce:	61 e0       	ldi	r22, 0x01	; 1
    1bd0:	0e 94 b4 01 	call	0x368	; 0x368 <Dio_setPinDir>

}
    1bd4:	00 00       	nop
    1bd6:	26 96       	adiw	r28, 0x06	; 6
    1bd8:	0f b6       	in	r0, 0x3f	; 63
    1bda:	f8 94       	cli
    1bdc:	de bf       	out	0x3e, r29	; 62
    1bde:	0f be       	out	0x3f, r0	; 63
    1be0:	cd bf       	out	0x3d, r28	; 61
    1be2:	df 91       	pop	r29
    1be4:	cf 91       	pop	r28
    1be6:	08 95       	ret

00001be8 <Motor_2_Motors_Forward>:
  * @brief  : 2 Motor With Motor Driver Move Forward
  * @param  : CopyMotor_1
  * @param  : CopyMotor_2
  */
void Motor_2_Motors_Forward(motor1 CopyMotor_1,motor2 CopyMotor_2)
{
    1be8:	cf 93       	push	r28
    1bea:	df 93       	push	r29
    1bec:	00 d0       	rcall	.+0      	; 0x1bee <Motor_2_Motors_Forward+0x6>
    1bee:	00 d0       	rcall	.+0      	; 0x1bf0 <Motor_2_Motors_Forward+0x8>
    1bf0:	00 d0       	rcall	.+0      	; 0x1bf2 <Motor_2_Motors_Forward+0xa>
    1bf2:	cd b7       	in	r28, 0x3d	; 61
    1bf4:	de b7       	in	r29, 0x3e	; 62
    1bf6:	69 83       	std	Y+1, r22	; 0x01
    1bf8:	7a 83       	std	Y+2, r23	; 0x02
    1bfa:	8b 83       	std	Y+3, r24	; 0x03
    1bfc:	2c 83       	std	Y+4, r18	; 0x04
    1bfe:	3d 83       	std	Y+5, r19	; 0x05
    1c00:	4e 83       	std	Y+6, r20	; 0x06
	Dio_setPinVal(CopyMotor_1.IN1, Status_Pin_High);
    1c02:	89 81       	ldd	r24, Y+1	; 0x01
    1c04:	61 e0       	ldi	r22, 0x01	; 1
    1c06:	0e 94 28 02 	call	0x450	; 0x450 <Dio_setPinVal>
	Dio_setPinVal(CopyMotor_1.IN2, Status_Pin_Low);
    1c0a:	8a 81       	ldd	r24, Y+2	; 0x02
    1c0c:	60 e0       	ldi	r22, 0x00	; 0
    1c0e:	0e 94 28 02 	call	0x450	; 0x450 <Dio_setPinVal>
	Dio_setPinVal(CopyMotor_1.ENA, Status_Pin_High);
    1c12:	8b 81       	ldd	r24, Y+3	; 0x03
    1c14:	61 e0       	ldi	r22, 0x01	; 1
    1c16:	0e 94 28 02 	call	0x450	; 0x450 <Dio_setPinVal>

	Dio_setPinVal(CopyMotor_2.IN3, Status_Pin_High);
    1c1a:	8c 81       	ldd	r24, Y+4	; 0x04
    1c1c:	61 e0       	ldi	r22, 0x01	; 1
    1c1e:	0e 94 28 02 	call	0x450	; 0x450 <Dio_setPinVal>
	Dio_setPinVal(CopyMotor_2.IN4, Status_Pin_Low);
    1c22:	8d 81       	ldd	r24, Y+5	; 0x05
    1c24:	60 e0       	ldi	r22, 0x00	; 0
    1c26:	0e 94 28 02 	call	0x450	; 0x450 <Dio_setPinVal>
	Dio_setPinVal(CopyMotor_2.ENB, Status_Pin_High);
    1c2a:	8e 81       	ldd	r24, Y+6	; 0x06
    1c2c:	61 e0       	ldi	r22, 0x01	; 1
    1c2e:	0e 94 28 02 	call	0x450	; 0x450 <Dio_setPinVal>
}
    1c32:	00 00       	nop
    1c34:	26 96       	adiw	r28, 0x06	; 6
    1c36:	0f b6       	in	r0, 0x3f	; 63
    1c38:	f8 94       	cli
    1c3a:	de bf       	out	0x3e, r29	; 62
    1c3c:	0f be       	out	0x3f, r0	; 63
    1c3e:	cd bf       	out	0x3d, r28	; 61
    1c40:	df 91       	pop	r29
    1c42:	cf 91       	pop	r28
    1c44:	08 95       	ret

00001c46 <Motor_2_Motors_Reverse>:
  * @brief  : 2 Motor With Motor Driver Move Reverse
  * @param  : CopyMotor_1
  * @param  : CopyMotor_2
  */
void Motor_2_Motors_Reverse(motor1 CopyMotor_1,motor2 CopyMotor_2)
{
    1c46:	cf 93       	push	r28
    1c48:	df 93       	push	r29
    1c4a:	00 d0       	rcall	.+0      	; 0x1c4c <Motor_2_Motors_Reverse+0x6>
    1c4c:	00 d0       	rcall	.+0      	; 0x1c4e <Motor_2_Motors_Reverse+0x8>
    1c4e:	00 d0       	rcall	.+0      	; 0x1c50 <Motor_2_Motors_Reverse+0xa>
    1c50:	cd b7       	in	r28, 0x3d	; 61
    1c52:	de b7       	in	r29, 0x3e	; 62
    1c54:	69 83       	std	Y+1, r22	; 0x01
    1c56:	7a 83       	std	Y+2, r23	; 0x02
    1c58:	8b 83       	std	Y+3, r24	; 0x03
    1c5a:	2c 83       	std	Y+4, r18	; 0x04
    1c5c:	3d 83       	std	Y+5, r19	; 0x05
    1c5e:	4e 83       	std	Y+6, r20	; 0x06
	Dio_setPinVal(CopyMotor_1.IN1, Status_Pin_Low);
    1c60:	89 81       	ldd	r24, Y+1	; 0x01
    1c62:	60 e0       	ldi	r22, 0x00	; 0
    1c64:	0e 94 28 02 	call	0x450	; 0x450 <Dio_setPinVal>
	Dio_setPinVal(CopyMotor_1.IN2, Status_Pin_High);
    1c68:	8a 81       	ldd	r24, Y+2	; 0x02
    1c6a:	61 e0       	ldi	r22, 0x01	; 1
    1c6c:	0e 94 28 02 	call	0x450	; 0x450 <Dio_setPinVal>
	Dio_setPinVal(CopyMotor_1.ENA, Status_Pin_High);
    1c70:	8b 81       	ldd	r24, Y+3	; 0x03
    1c72:	61 e0       	ldi	r22, 0x01	; 1
    1c74:	0e 94 28 02 	call	0x450	; 0x450 <Dio_setPinVal>


	Dio_setPinVal(CopyMotor_2.IN3, Status_Pin_Low);
    1c78:	8c 81       	ldd	r24, Y+4	; 0x04
    1c7a:	60 e0       	ldi	r22, 0x00	; 0
    1c7c:	0e 94 28 02 	call	0x450	; 0x450 <Dio_setPinVal>
	Dio_setPinVal(CopyMotor_2.IN4, Status_Pin_High);
    1c80:	8d 81       	ldd	r24, Y+5	; 0x05
    1c82:	61 e0       	ldi	r22, 0x01	; 1
    1c84:	0e 94 28 02 	call	0x450	; 0x450 <Dio_setPinVal>
	Dio_setPinVal(CopyMotor_2.ENB, Status_Pin_High);
    1c88:	8e 81       	ldd	r24, Y+6	; 0x06
    1c8a:	61 e0       	ldi	r22, 0x01	; 1
    1c8c:	0e 94 28 02 	call	0x450	; 0x450 <Dio_setPinVal>

}
    1c90:	00 00       	nop
    1c92:	26 96       	adiw	r28, 0x06	; 6
    1c94:	0f b6       	in	r0, 0x3f	; 63
    1c96:	f8 94       	cli
    1c98:	de bf       	out	0x3e, r29	; 62
    1c9a:	0f be       	out	0x3f, r0	; 63
    1c9c:	cd bf       	out	0x3d, r28	; 61
    1c9e:	df 91       	pop	r29
    1ca0:	cf 91       	pop	r28
    1ca2:	08 95       	ret

00001ca4 <Motor_2_Motors_Off>:
  * @brief  : 2 Motor With Motor Driver Move Stop
  * @param  : CopyMotor_1
  * @param  : CopyMotor_2
  */
void Motor_2_Motors_Off(motor1 CopyMotor_1,motor2 CopyMotor_2)
{
    1ca4:	cf 93       	push	r28
    1ca6:	df 93       	push	r29
    1ca8:	00 d0       	rcall	.+0      	; 0x1caa <Motor_2_Motors_Off+0x6>
    1caa:	00 d0       	rcall	.+0      	; 0x1cac <Motor_2_Motors_Off+0x8>
    1cac:	00 d0       	rcall	.+0      	; 0x1cae <Motor_2_Motors_Off+0xa>
    1cae:	cd b7       	in	r28, 0x3d	; 61
    1cb0:	de b7       	in	r29, 0x3e	; 62
    1cb2:	69 83       	std	Y+1, r22	; 0x01
    1cb4:	7a 83       	std	Y+2, r23	; 0x02
    1cb6:	8b 83       	std	Y+3, r24	; 0x03
    1cb8:	2c 83       	std	Y+4, r18	; 0x04
    1cba:	3d 83       	std	Y+5, r19	; 0x05
    1cbc:	4e 83       	std	Y+6, r20	; 0x06
	Dio_setPinVal(CopyMotor_1.IN1, Status_Pin_Low);
    1cbe:	89 81       	ldd	r24, Y+1	; 0x01
    1cc0:	60 e0       	ldi	r22, 0x00	; 0
    1cc2:	0e 94 28 02 	call	0x450	; 0x450 <Dio_setPinVal>
	Dio_setPinVal(CopyMotor_1.IN2, Status_Pin_Low);
    1cc6:	8a 81       	ldd	r24, Y+2	; 0x02
    1cc8:	60 e0       	ldi	r22, 0x00	; 0
    1cca:	0e 94 28 02 	call	0x450	; 0x450 <Dio_setPinVal>
	Dio_setPinVal(CopyMotor_1.ENA, Status_Pin_Low);
    1cce:	8b 81       	ldd	r24, Y+3	; 0x03
    1cd0:	60 e0       	ldi	r22, 0x00	; 0
    1cd2:	0e 94 28 02 	call	0x450	; 0x450 <Dio_setPinVal>


	Dio_setPinVal(CopyMotor_2.IN3, Status_Pin_Low);
    1cd6:	8c 81       	ldd	r24, Y+4	; 0x04
    1cd8:	60 e0       	ldi	r22, 0x00	; 0
    1cda:	0e 94 28 02 	call	0x450	; 0x450 <Dio_setPinVal>
	Dio_setPinVal(CopyMotor_2.IN4, Status_Pin_Low);
    1cde:	8d 81       	ldd	r24, Y+5	; 0x05
    1ce0:	60 e0       	ldi	r22, 0x00	; 0
    1ce2:	0e 94 28 02 	call	0x450	; 0x450 <Dio_setPinVal>
	Dio_setPinVal(CopyMotor_2.ENB, Status_Pin_Low);
    1ce6:	8e 81       	ldd	r24, Y+6	; 0x06
    1ce8:	60 e0       	ldi	r22, 0x00	; 0
    1cea:	0e 94 28 02 	call	0x450	; 0x450 <Dio_setPinVal>
}
    1cee:	00 00       	nop
    1cf0:	26 96       	adiw	r28, 0x06	; 6
    1cf2:	0f b6       	in	r0, 0x3f	; 63
    1cf4:	f8 94       	cli
    1cf6:	de bf       	out	0x3e, r29	; 62
    1cf8:	0f be       	out	0x3f, r0	; 63
    1cfa:	cd bf       	out	0x3d, r28	; 61
    1cfc:	df 91       	pop	r29
    1cfe:	cf 91       	pop	r28
    1d00:	08 95       	ret

00001d02 <Bcd_7segInit>:
/**
  * @brief  : Initialization 7-segment With BCD
  * @param  : Copy7seg
  */
void Bcd_7segInit(BCD Copy7seg)
{
    1d02:	cf 93       	push	r28
    1d04:	df 93       	push	r29
    1d06:	00 d0       	rcall	.+0      	; 0x1d08 <Bcd_7segInit+0x6>
    1d08:	00 d0       	rcall	.+0      	; 0x1d0a <Bcd_7segInit+0x8>
    1d0a:	cd b7       	in	r28, 0x3d	; 61
    1d0c:	de b7       	in	r29, 0x3e	; 62
    1d0e:	69 83       	std	Y+1, r22	; 0x01
    1d10:	7a 83       	std	Y+2, r23	; 0x02
    1d12:	8b 83       	std	Y+3, r24	; 0x03
    1d14:	9c 83       	std	Y+4, r25	; 0x04
	Dio_setPinDir(Copy7seg.Pin_1, Direction_Pin_Output);
    1d16:	89 81       	ldd	r24, Y+1	; 0x01
    1d18:	61 e0       	ldi	r22, 0x01	; 1
    1d1a:	0e 94 b4 01 	call	0x368	; 0x368 <Dio_setPinDir>
	Dio_setPinDir(Copy7seg.Pin_2, Direction_Pin_Output);
    1d1e:	8a 81       	ldd	r24, Y+2	; 0x02
    1d20:	61 e0       	ldi	r22, 0x01	; 1
    1d22:	0e 94 b4 01 	call	0x368	; 0x368 <Dio_setPinDir>
	Dio_setPinDir(Copy7seg.Pin_3, Direction_Pin_Output);
    1d26:	8b 81       	ldd	r24, Y+3	; 0x03
    1d28:	61 e0       	ldi	r22, 0x01	; 1
    1d2a:	0e 94 b4 01 	call	0x368	; 0x368 <Dio_setPinDir>
	Dio_setPinDir(Copy7seg.Pin_4, Direction_Pin_Output);
    1d2e:	8c 81       	ldd	r24, Y+4	; 0x04
    1d30:	61 e0       	ldi	r22, 0x01	; 1
    1d32:	0e 94 b4 01 	call	0x368	; 0x368 <Dio_setPinDir>
}
    1d36:	00 00       	nop
    1d38:	0f 90       	pop	r0
    1d3a:	0f 90       	pop	r0
    1d3c:	0f 90       	pop	r0
    1d3e:	0f 90       	pop	r0
    1d40:	df 91       	pop	r29
    1d42:	cf 91       	pop	r28
    1d44:	08 95       	ret

00001d46 <Bcd_7segWriteNum>:
  * @brief  : Write Number in 7-segment With BCD
  * @param  : Copy7segNum
  * @param  : CopyNumber
  */
void Bcd_7segWriteNum(BCD Copy7segNum , u8 CopyNumber)
{
    1d46:	cf 93       	push	r28
    1d48:	df 93       	push	r29
    1d4a:	00 d0       	rcall	.+0      	; 0x1d4c <Bcd_7segWriteNum+0x6>
    1d4c:	00 d0       	rcall	.+0      	; 0x1d4e <Bcd_7segWriteNum+0x8>
    1d4e:	1f 92       	push	r1
    1d50:	cd b7       	in	r28, 0x3d	; 61
    1d52:	de b7       	in	r29, 0x3e	; 62
    1d54:	69 83       	std	Y+1, r22	; 0x01
    1d56:	7a 83       	std	Y+2, r23	; 0x02
    1d58:	8b 83       	std	Y+3, r24	; 0x03
    1d5a:	9c 83       	std	Y+4, r25	; 0x04
    1d5c:	4d 83       	std	Y+5, r20	; 0x05
	switch (CopyNumber) {
    1d5e:	8d 81       	ldd	r24, Y+5	; 0x05
    1d60:	88 2f       	mov	r24, r24
    1d62:	90 e0       	ldi	r25, 0x00	; 0
    1d64:	09 2e       	mov	r0, r25
    1d66:	00 0c       	add	r0, r0
    1d68:	aa 0b       	sbc	r26, r26
    1d6a:	bb 0b       	sbc	r27, r27
    1d6c:	8a 30       	cpi	r24, 0x0A	; 10
    1d6e:	91 05       	cpc	r25, r1
    1d70:	a1 05       	cpc	r26, r1
    1d72:	b1 05       	cpc	r27, r1
    1d74:	08 f0       	brcs	.+2      	; 0x1d78 <Bcd_7segWriteNum+0x32>
    1d76:	b9 c0       	rjmp	.+370    	; 0x1eea <Bcd_7segWriteNum+0x1a4>
    1d78:	8f 53       	subi	r24, 0x3F	; 63
    1d7a:	91 4f       	sbci	r25, 0xF1	; 241
    1d7c:	fc 01       	movw	r30, r24
    1d7e:	0c 94 20 10 	jmp	0x2040	; 0x2040 <__tablejump2__>
    1d82:	cb 0e       	add	r12, r27
    1d84:	dc 0e       	add	r13, r28
    1d86:	ed 0e       	add	r14, r29
    1d88:	fe 0e       	add	r15, r30
    1d8a:	0f 0f       	add	r16, r31
    1d8c:	20 0f       	add	r18, r16
    1d8e:	31 0f       	add	r19, r17
    1d90:	42 0f       	add	r20, r18
    1d92:	53 0f       	add	r21, r19
    1d94:	64 0f       	add	r22, r20
		case 0:
				Dio_setPinVal(Copy7segNum.Pin_1, Status_Pin_Low);	// A = 0
    1d96:	89 81       	ldd	r24, Y+1	; 0x01
    1d98:	60 e0       	ldi	r22, 0x00	; 0
    1d9a:	0e 94 28 02 	call	0x450	; 0x450 <Dio_setPinVal>
				Dio_setPinVal(Copy7segNum.Pin_2, Status_Pin_Low);	// B = 0
    1d9e:	8a 81       	ldd	r24, Y+2	; 0x02
    1da0:	60 e0       	ldi	r22, 0x00	; 0
    1da2:	0e 94 28 02 	call	0x450	; 0x450 <Dio_setPinVal>
				Dio_setPinVal(Copy7segNum.Pin_3, Status_Pin_Low);	// C = 0
    1da6:	8b 81       	ldd	r24, Y+3	; 0x03
    1da8:	60 e0       	ldi	r22, 0x00	; 0
    1daa:	0e 94 28 02 	call	0x450	; 0x450 <Dio_setPinVal>
				Dio_setPinVal(Copy7segNum.Pin_4, Status_Pin_Low);	// D = 0
    1dae:	8c 81       	ldd	r24, Y+4	; 0x04
    1db0:	60 e0       	ldi	r22, 0x00	; 0
    1db2:	0e 94 28 02 	call	0x450	; 0x450 <Dio_setPinVal>
			break;
    1db6:	9a c0       	rjmp	.+308    	; 0x1eec <Bcd_7segWriteNum+0x1a6>
		case 1:
				Dio_setPinVal(Copy7segNum.Pin_1, Status_Pin_High);	// A = 1
    1db8:	89 81       	ldd	r24, Y+1	; 0x01
    1dba:	61 e0       	ldi	r22, 0x01	; 1
    1dbc:	0e 94 28 02 	call	0x450	; 0x450 <Dio_setPinVal>
				Dio_setPinVal(Copy7segNum.Pin_2, Status_Pin_Low);	// B = 0
    1dc0:	8a 81       	ldd	r24, Y+2	; 0x02
    1dc2:	60 e0       	ldi	r22, 0x00	; 0
    1dc4:	0e 94 28 02 	call	0x450	; 0x450 <Dio_setPinVal>
				Dio_setPinVal(Copy7segNum.Pin_3, Status_Pin_Low);	// C = 0
    1dc8:	8b 81       	ldd	r24, Y+3	; 0x03
    1dca:	60 e0       	ldi	r22, 0x00	; 0
    1dcc:	0e 94 28 02 	call	0x450	; 0x450 <Dio_setPinVal>
				Dio_setPinVal(Copy7segNum.Pin_4, Status_Pin_Low);	// D = 0
    1dd0:	8c 81       	ldd	r24, Y+4	; 0x04
    1dd2:	60 e0       	ldi	r22, 0x00	; 0
    1dd4:	0e 94 28 02 	call	0x450	; 0x450 <Dio_setPinVal>
			break;
    1dd8:	89 c0       	rjmp	.+274    	; 0x1eec <Bcd_7segWriteNum+0x1a6>
		case 2:
				Dio_setPinVal(Copy7segNum.Pin_1, Status_Pin_Low);	// A = 0
    1dda:	89 81       	ldd	r24, Y+1	; 0x01
    1ddc:	60 e0       	ldi	r22, 0x00	; 0
    1dde:	0e 94 28 02 	call	0x450	; 0x450 <Dio_setPinVal>
				Dio_setPinVal(Copy7segNum.Pin_2, Status_Pin_High);	// B = 1
    1de2:	8a 81       	ldd	r24, Y+2	; 0x02
    1de4:	61 e0       	ldi	r22, 0x01	; 1
    1de6:	0e 94 28 02 	call	0x450	; 0x450 <Dio_setPinVal>
				Dio_setPinVal(Copy7segNum.Pin_3, Status_Pin_Low);	// C = 0
    1dea:	8b 81       	ldd	r24, Y+3	; 0x03
    1dec:	60 e0       	ldi	r22, 0x00	; 0
    1dee:	0e 94 28 02 	call	0x450	; 0x450 <Dio_setPinVal>
				Dio_setPinVal(Copy7segNum.Pin_4, Status_Pin_Low);	// D = 0
    1df2:	8c 81       	ldd	r24, Y+4	; 0x04
    1df4:	60 e0       	ldi	r22, 0x00	; 0
    1df6:	0e 94 28 02 	call	0x450	; 0x450 <Dio_setPinVal>
			break;
    1dfa:	78 c0       	rjmp	.+240    	; 0x1eec <Bcd_7segWriteNum+0x1a6>
		case 3:
				Dio_setPinVal(Copy7segNum.Pin_1, Status_Pin_High);	// A = 1
    1dfc:	89 81       	ldd	r24, Y+1	; 0x01
    1dfe:	61 e0       	ldi	r22, 0x01	; 1
    1e00:	0e 94 28 02 	call	0x450	; 0x450 <Dio_setPinVal>
				Dio_setPinVal(Copy7segNum.Pin_2, Status_Pin_High);	// B = 1
    1e04:	8a 81       	ldd	r24, Y+2	; 0x02
    1e06:	61 e0       	ldi	r22, 0x01	; 1
    1e08:	0e 94 28 02 	call	0x450	; 0x450 <Dio_setPinVal>
				Dio_setPinVal(Copy7segNum.Pin_3, Status_Pin_Low);	// C = 0
    1e0c:	8b 81       	ldd	r24, Y+3	; 0x03
    1e0e:	60 e0       	ldi	r22, 0x00	; 0
    1e10:	0e 94 28 02 	call	0x450	; 0x450 <Dio_setPinVal>
				Dio_setPinVal(Copy7segNum.Pin_4, Status_Pin_Low);	// D = 0
    1e14:	8c 81       	ldd	r24, Y+4	; 0x04
    1e16:	60 e0       	ldi	r22, 0x00	; 0
    1e18:	0e 94 28 02 	call	0x450	; 0x450 <Dio_setPinVal>
			break;
    1e1c:	67 c0       	rjmp	.+206    	; 0x1eec <Bcd_7segWriteNum+0x1a6>
		case 4:
				Dio_setPinVal(Copy7segNum.Pin_1, Status_Pin_Low);	// A = 0
    1e1e:	89 81       	ldd	r24, Y+1	; 0x01
    1e20:	60 e0       	ldi	r22, 0x00	; 0
    1e22:	0e 94 28 02 	call	0x450	; 0x450 <Dio_setPinVal>
				Dio_setPinVal(Copy7segNum.Pin_2, Status_Pin_Low);	// B = 0
    1e26:	8a 81       	ldd	r24, Y+2	; 0x02
    1e28:	60 e0       	ldi	r22, 0x00	; 0
    1e2a:	0e 94 28 02 	call	0x450	; 0x450 <Dio_setPinVal>
				Dio_setPinVal(Copy7segNum.Pin_3, Status_Pin_High);	// C = 1
    1e2e:	8b 81       	ldd	r24, Y+3	; 0x03
    1e30:	61 e0       	ldi	r22, 0x01	; 1
    1e32:	0e 94 28 02 	call	0x450	; 0x450 <Dio_setPinVal>
				Dio_setPinVal(Copy7segNum.Pin_4, Status_Pin_Low);	// D = 0
    1e36:	8c 81       	ldd	r24, Y+4	; 0x04
    1e38:	60 e0       	ldi	r22, 0x00	; 0
    1e3a:	0e 94 28 02 	call	0x450	; 0x450 <Dio_setPinVal>
			break;
    1e3e:	56 c0       	rjmp	.+172    	; 0x1eec <Bcd_7segWriteNum+0x1a6>
		case 5:
				Dio_setPinVal(Copy7segNum.Pin_1, Status_Pin_High);	// A = 1
    1e40:	89 81       	ldd	r24, Y+1	; 0x01
    1e42:	61 e0       	ldi	r22, 0x01	; 1
    1e44:	0e 94 28 02 	call	0x450	; 0x450 <Dio_setPinVal>
				Dio_setPinVal(Copy7segNum.Pin_2, Status_Pin_Low);	// B = 0
    1e48:	8a 81       	ldd	r24, Y+2	; 0x02
    1e4a:	60 e0       	ldi	r22, 0x00	; 0
    1e4c:	0e 94 28 02 	call	0x450	; 0x450 <Dio_setPinVal>
				Dio_setPinVal(Copy7segNum.Pin_3, Status_Pin_High);	// C = 1
    1e50:	8b 81       	ldd	r24, Y+3	; 0x03
    1e52:	61 e0       	ldi	r22, 0x01	; 1
    1e54:	0e 94 28 02 	call	0x450	; 0x450 <Dio_setPinVal>
				Dio_setPinVal(Copy7segNum.Pin_4, Status_Pin_Low);	// D = 0
    1e58:	8c 81       	ldd	r24, Y+4	; 0x04
    1e5a:	60 e0       	ldi	r22, 0x00	; 0
    1e5c:	0e 94 28 02 	call	0x450	; 0x450 <Dio_setPinVal>
			break;
    1e60:	45 c0       	rjmp	.+138    	; 0x1eec <Bcd_7segWriteNum+0x1a6>
		case 6:
				Dio_setPinVal(Copy7segNum.Pin_1, Status_Pin_Low);	// A = 0
    1e62:	89 81       	ldd	r24, Y+1	; 0x01
    1e64:	60 e0       	ldi	r22, 0x00	; 0
    1e66:	0e 94 28 02 	call	0x450	; 0x450 <Dio_setPinVal>
				Dio_setPinVal(Copy7segNum.Pin_2, Status_Pin_High);	// B = 1
    1e6a:	8a 81       	ldd	r24, Y+2	; 0x02
    1e6c:	61 e0       	ldi	r22, 0x01	; 1
    1e6e:	0e 94 28 02 	call	0x450	; 0x450 <Dio_setPinVal>
				Dio_setPinVal(Copy7segNum.Pin_3, Status_Pin_High);	// C = 1
    1e72:	8b 81       	ldd	r24, Y+3	; 0x03
    1e74:	61 e0       	ldi	r22, 0x01	; 1
    1e76:	0e 94 28 02 	call	0x450	; 0x450 <Dio_setPinVal>
				Dio_setPinVal(Copy7segNum.Pin_4, Status_Pin_Low);	// D = 0
    1e7a:	8c 81       	ldd	r24, Y+4	; 0x04
    1e7c:	60 e0       	ldi	r22, 0x00	; 0
    1e7e:	0e 94 28 02 	call	0x450	; 0x450 <Dio_setPinVal>
			break;
    1e82:	34 c0       	rjmp	.+104    	; 0x1eec <Bcd_7segWriteNum+0x1a6>
		case 7:
				Dio_setPinVal(Copy7segNum.Pin_1, Status_Pin_High);	// A = 1
    1e84:	89 81       	ldd	r24, Y+1	; 0x01
    1e86:	61 e0       	ldi	r22, 0x01	; 1
    1e88:	0e 94 28 02 	call	0x450	; 0x450 <Dio_setPinVal>
				Dio_setPinVal(Copy7segNum.Pin_2, Status_Pin_High);	// B = 1
    1e8c:	8a 81       	ldd	r24, Y+2	; 0x02
    1e8e:	61 e0       	ldi	r22, 0x01	; 1
    1e90:	0e 94 28 02 	call	0x450	; 0x450 <Dio_setPinVal>
				Dio_setPinVal(Copy7segNum.Pin_3, Status_Pin_High);	// C = 1
    1e94:	8b 81       	ldd	r24, Y+3	; 0x03
    1e96:	61 e0       	ldi	r22, 0x01	; 1
    1e98:	0e 94 28 02 	call	0x450	; 0x450 <Dio_setPinVal>
				Dio_setPinVal(Copy7segNum.Pin_4, Status_Pin_Low);	// D = 0
    1e9c:	8c 81       	ldd	r24, Y+4	; 0x04
    1e9e:	60 e0       	ldi	r22, 0x00	; 0
    1ea0:	0e 94 28 02 	call	0x450	; 0x450 <Dio_setPinVal>
			break;
    1ea4:	23 c0       	rjmp	.+70     	; 0x1eec <Bcd_7segWriteNum+0x1a6>
		case 8:
				Dio_setPinVal(Copy7segNum.Pin_1, Status_Pin_Low);	// A = 0
    1ea6:	89 81       	ldd	r24, Y+1	; 0x01
    1ea8:	60 e0       	ldi	r22, 0x00	; 0
    1eaa:	0e 94 28 02 	call	0x450	; 0x450 <Dio_setPinVal>
				Dio_setPinVal(Copy7segNum.Pin_2, Status_Pin_Low);	// B = 0
    1eae:	8a 81       	ldd	r24, Y+2	; 0x02
    1eb0:	60 e0       	ldi	r22, 0x00	; 0
    1eb2:	0e 94 28 02 	call	0x450	; 0x450 <Dio_setPinVal>
				Dio_setPinVal(Copy7segNum.Pin_3, Status_Pin_Low);	// C = 0
    1eb6:	8b 81       	ldd	r24, Y+3	; 0x03
    1eb8:	60 e0       	ldi	r22, 0x00	; 0
    1eba:	0e 94 28 02 	call	0x450	; 0x450 <Dio_setPinVal>
				Dio_setPinVal(Copy7segNum.Pin_4, Status_Pin_High);	// D = 1
    1ebe:	8c 81       	ldd	r24, Y+4	; 0x04
    1ec0:	61 e0       	ldi	r22, 0x01	; 1
    1ec2:	0e 94 28 02 	call	0x450	; 0x450 <Dio_setPinVal>
			break;
    1ec6:	12 c0       	rjmp	.+36     	; 0x1eec <Bcd_7segWriteNum+0x1a6>
		case 9:
				Dio_setPinVal(Copy7segNum.Pin_1, Status_Pin_High);	// A = 1
    1ec8:	89 81       	ldd	r24, Y+1	; 0x01
    1eca:	61 e0       	ldi	r22, 0x01	; 1
    1ecc:	0e 94 28 02 	call	0x450	; 0x450 <Dio_setPinVal>
				Dio_setPinVal(Copy7segNum.Pin_2, Status_Pin_Low);	// B = 0
    1ed0:	8a 81       	ldd	r24, Y+2	; 0x02
    1ed2:	60 e0       	ldi	r22, 0x00	; 0
    1ed4:	0e 94 28 02 	call	0x450	; 0x450 <Dio_setPinVal>
				Dio_setPinVal(Copy7segNum.Pin_3, Status_Pin_Low);	// C = 0
    1ed8:	8b 81       	ldd	r24, Y+3	; 0x03
    1eda:	60 e0       	ldi	r22, 0x00	; 0
    1edc:	0e 94 28 02 	call	0x450	; 0x450 <Dio_setPinVal>
				Dio_setPinVal(Copy7segNum.Pin_4, Status_Pin_High);	// D = 1
    1ee0:	8c 81       	ldd	r24, Y+4	; 0x04
    1ee2:	61 e0       	ldi	r22, 0x01	; 1
    1ee4:	0e 94 28 02 	call	0x450	; 0x450 <Dio_setPinVal>
			break;
    1ee8:	01 c0       	rjmp	.+2      	; 0x1eec <Bcd_7segWriteNum+0x1a6>
		default:
			break;
    1eea:	00 00       	nop
	}
}
    1eec:	00 00       	nop
    1eee:	0f 90       	pop	r0
    1ef0:	0f 90       	pop	r0
    1ef2:	0f 90       	pop	r0
    1ef4:	0f 90       	pop	r0
    1ef6:	0f 90       	pop	r0
    1ef8:	df 91       	pop	r29
    1efa:	cf 91       	pop	r28
    1efc:	08 95       	ret

00001efe <Bcd_MPX_6Enable>:
  * @brief  :  Set or Clear Enable Pins & Select Type Of 6 Multiplexing 7-segment
  * @param  : Copy7segNum
  * @param  : CopyNumber
  */
void Bcd_MPX_6Enable(MPX_6_Enables CopyPinsEnable , u8 CopyCommonType, u8 CopyStatus)
{
    1efe:	0f 93       	push	r16
    1f00:	cf 93       	push	r28
    1f02:	df 93       	push	r29
    1f04:	cd b7       	in	r28, 0x3d	; 61
    1f06:	de b7       	in	r29, 0x3e	; 62
    1f08:	28 97       	sbiw	r28, 0x08	; 8
    1f0a:	0f b6       	in	r0, 0x3f	; 63
    1f0c:	f8 94       	cli
    1f0e:	de bf       	out	0x3e, r29	; 62
    1f10:	0f be       	out	0x3f, r0	; 63
    1f12:	cd bf       	out	0x3d, r28	; 61
    1f14:	49 83       	std	Y+1, r20	; 0x01
    1f16:	5a 83       	std	Y+2, r21	; 0x02
    1f18:	6b 83       	std	Y+3, r22	; 0x03
    1f1a:	7c 83       	std	Y+4, r23	; 0x04
    1f1c:	8d 83       	std	Y+5, r24	; 0x05
    1f1e:	9e 83       	std	Y+6, r25	; 0x06
    1f20:	2f 83       	std	Y+7, r18	; 0x07
    1f22:	08 87       	std	Y+8, r16	; 0x08
	if(CopyStatus == Enable){
    1f24:	88 85       	ldd	r24, Y+8	; 0x08
    1f26:	81 30       	cpi	r24, 0x01	; 1
    1f28:	d1 f5       	brne	.+116    	; 0x1f9e <Bcd_MPX_6Enable+0xa0>
		switch (CopyCommonType) {
    1f2a:	8f 81       	ldd	r24, Y+7	; 0x07
    1f2c:	88 2f       	mov	r24, r24
    1f2e:	90 e0       	ldi	r25, 0x00	; 0
    1f30:	00 97       	sbiw	r24, 0x00	; 0
    1f32:	e1 f0       	breq	.+56     	; 0x1f6c <Bcd_MPX_6Enable+0x6e>
    1f34:	01 97       	sbiw	r24, 0x01	; 1
    1f36:	09 f0       	breq	.+2      	; 0x1f3a <Bcd_MPX_6Enable+0x3c>
				Dio_setPinVal(CopyPinsEnable.EN_4, Status_Pin_Low);
				Dio_setPinVal(CopyPinsEnable.EN_5, Status_Pin_Low);
				Dio_setPinVal(CopyPinsEnable.EN_6, Status_Pin_Low);
				break;
			default:
				break;
    1f38:	6f c0       	rjmp	.+222    	; 0x2018 <Bcd_MPX_6Enable+0x11a>
void Bcd_MPX_6Enable(MPX_6_Enables CopyPinsEnable , u8 CopyCommonType, u8 CopyStatus)
{
	if(CopyStatus == Enable){
		switch (CopyCommonType) {
			case Common_Anode :
				Dio_setPinVal(CopyPinsEnable.EN_1, Status_Pin_High);
    1f3a:	89 81       	ldd	r24, Y+1	; 0x01
    1f3c:	61 e0       	ldi	r22, 0x01	; 1
    1f3e:	0e 94 28 02 	call	0x450	; 0x450 <Dio_setPinVal>
				Dio_setPinVal(CopyPinsEnable.EN_2, Status_Pin_High);
    1f42:	8a 81       	ldd	r24, Y+2	; 0x02
    1f44:	61 e0       	ldi	r22, 0x01	; 1
    1f46:	0e 94 28 02 	call	0x450	; 0x450 <Dio_setPinVal>
				Dio_setPinVal(CopyPinsEnable.EN_3, Status_Pin_High);
    1f4a:	8b 81       	ldd	r24, Y+3	; 0x03
    1f4c:	61 e0       	ldi	r22, 0x01	; 1
    1f4e:	0e 94 28 02 	call	0x450	; 0x450 <Dio_setPinVal>
				Dio_setPinVal(CopyPinsEnable.EN_4, Status_Pin_High);
    1f52:	8c 81       	ldd	r24, Y+4	; 0x04
    1f54:	61 e0       	ldi	r22, 0x01	; 1
    1f56:	0e 94 28 02 	call	0x450	; 0x450 <Dio_setPinVal>
				Dio_setPinVal(CopyPinsEnable.EN_5, Status_Pin_High);
    1f5a:	8d 81       	ldd	r24, Y+5	; 0x05
    1f5c:	61 e0       	ldi	r22, 0x01	; 1
    1f5e:	0e 94 28 02 	call	0x450	; 0x450 <Dio_setPinVal>
				Dio_setPinVal(CopyPinsEnable.EN_6, Status_Pin_High);
    1f62:	8e 81       	ldd	r24, Y+6	; 0x06
    1f64:	61 e0       	ldi	r22, 0x01	; 1
    1f66:	0e 94 28 02 	call	0x450	; 0x450 <Dio_setPinVal>
				break;
    1f6a:	56 c0       	rjmp	.+172    	; 0x2018 <Bcd_MPX_6Enable+0x11a>
			case Common_Cathod :
				Dio_setPinVal(CopyPinsEnable.EN_1, Status_Pin_Low);
    1f6c:	89 81       	ldd	r24, Y+1	; 0x01
    1f6e:	60 e0       	ldi	r22, 0x00	; 0
    1f70:	0e 94 28 02 	call	0x450	; 0x450 <Dio_setPinVal>
				Dio_setPinVal(CopyPinsEnable.EN_2, Status_Pin_Low);
    1f74:	8a 81       	ldd	r24, Y+2	; 0x02
    1f76:	60 e0       	ldi	r22, 0x00	; 0
    1f78:	0e 94 28 02 	call	0x450	; 0x450 <Dio_setPinVal>
				Dio_setPinVal(CopyPinsEnable.EN_3, Status_Pin_Low);
    1f7c:	8b 81       	ldd	r24, Y+3	; 0x03
    1f7e:	60 e0       	ldi	r22, 0x00	; 0
    1f80:	0e 94 28 02 	call	0x450	; 0x450 <Dio_setPinVal>
				Dio_setPinVal(CopyPinsEnable.EN_4, Status_Pin_Low);
    1f84:	8c 81       	ldd	r24, Y+4	; 0x04
    1f86:	60 e0       	ldi	r22, 0x00	; 0
    1f88:	0e 94 28 02 	call	0x450	; 0x450 <Dio_setPinVal>
				Dio_setPinVal(CopyPinsEnable.EN_5, Status_Pin_Low);
    1f8c:	8d 81       	ldd	r24, Y+5	; 0x05
    1f8e:	60 e0       	ldi	r22, 0x00	; 0
    1f90:	0e 94 28 02 	call	0x450	; 0x450 <Dio_setPinVal>
				Dio_setPinVal(CopyPinsEnable.EN_6, Status_Pin_Low);
    1f94:	8e 81       	ldd	r24, Y+6	; 0x06
    1f96:	60 e0       	ldi	r22, 0x00	; 0
    1f98:	0e 94 28 02 	call	0x450	; 0x450 <Dio_setPinVal>
				break;
    1f9c:	3d c0       	rjmp	.+122    	; 0x2018 <Bcd_MPX_6Enable+0x11a>
			default:
				break;
		}
	}
	else if (CopyStatus == Disable)
    1f9e:	88 85       	ldd	r24, Y+8	; 0x08
    1fa0:	88 23       	and	r24, r24
    1fa2:	d1 f5       	brne	.+116    	; 0x2018 <Bcd_MPX_6Enable+0x11a>
	{
		switch (CopyCommonType) {
    1fa4:	8f 81       	ldd	r24, Y+7	; 0x07
    1fa6:	88 2f       	mov	r24, r24
    1fa8:	90 e0       	ldi	r25, 0x00	; 0
    1faa:	00 97       	sbiw	r24, 0x00	; 0
    1fac:	e1 f0       	breq	.+56     	; 0x1fe6 <Bcd_MPX_6Enable+0xe8>
    1fae:	01 97       	sbiw	r24, 0x01	; 1
    1fb0:	09 f0       	breq	.+2      	; 0x1fb4 <Bcd_MPX_6Enable+0xb6>
				Dio_setPinVal(CopyPinsEnable.EN_4, Status_Pin_High);
				Dio_setPinVal(CopyPinsEnable.EN_5, Status_Pin_High);
				Dio_setPinVal(CopyPinsEnable.EN_6, Status_Pin_High);
				break;
			default:
				break;
    1fb2:	32 c0       	rjmp	.+100    	; 0x2018 <Bcd_MPX_6Enable+0x11a>
	}
	else if (CopyStatus == Disable)
	{
		switch (CopyCommonType) {
			case Common_Anode :
				Dio_setPinVal(CopyPinsEnable.EN_1, Status_Pin_Low);
    1fb4:	89 81       	ldd	r24, Y+1	; 0x01
    1fb6:	60 e0       	ldi	r22, 0x00	; 0
    1fb8:	0e 94 28 02 	call	0x450	; 0x450 <Dio_setPinVal>
				Dio_setPinVal(CopyPinsEnable.EN_2, Status_Pin_Low);
    1fbc:	8a 81       	ldd	r24, Y+2	; 0x02
    1fbe:	60 e0       	ldi	r22, 0x00	; 0
    1fc0:	0e 94 28 02 	call	0x450	; 0x450 <Dio_setPinVal>
				Dio_setPinVal(CopyPinsEnable.EN_3, Status_Pin_Low);
    1fc4:	8b 81       	ldd	r24, Y+3	; 0x03
    1fc6:	60 e0       	ldi	r22, 0x00	; 0
    1fc8:	0e 94 28 02 	call	0x450	; 0x450 <Dio_setPinVal>
				Dio_setPinVal(CopyPinsEnable.EN_4, Status_Pin_Low);
    1fcc:	8c 81       	ldd	r24, Y+4	; 0x04
    1fce:	60 e0       	ldi	r22, 0x00	; 0
    1fd0:	0e 94 28 02 	call	0x450	; 0x450 <Dio_setPinVal>
				Dio_setPinVal(CopyPinsEnable.EN_5, Status_Pin_Low);
    1fd4:	8d 81       	ldd	r24, Y+5	; 0x05
    1fd6:	60 e0       	ldi	r22, 0x00	; 0
    1fd8:	0e 94 28 02 	call	0x450	; 0x450 <Dio_setPinVal>
				Dio_setPinVal(CopyPinsEnable.EN_6, Status_Pin_Low);
    1fdc:	8e 81       	ldd	r24, Y+6	; 0x06
    1fde:	60 e0       	ldi	r22, 0x00	; 0
    1fe0:	0e 94 28 02 	call	0x450	; 0x450 <Dio_setPinVal>
				break;
    1fe4:	19 c0       	rjmp	.+50     	; 0x2018 <Bcd_MPX_6Enable+0x11a>
			case Common_Cathod :
				Dio_setPinVal(CopyPinsEnable.EN_1, Status_Pin_High);
    1fe6:	89 81       	ldd	r24, Y+1	; 0x01
    1fe8:	61 e0       	ldi	r22, 0x01	; 1
    1fea:	0e 94 28 02 	call	0x450	; 0x450 <Dio_setPinVal>
				Dio_setPinVal(CopyPinsEnable.EN_2, Status_Pin_High);
    1fee:	8a 81       	ldd	r24, Y+2	; 0x02
    1ff0:	61 e0       	ldi	r22, 0x01	; 1
    1ff2:	0e 94 28 02 	call	0x450	; 0x450 <Dio_setPinVal>
				Dio_setPinVal(CopyPinsEnable.EN_3, Status_Pin_High);
    1ff6:	8b 81       	ldd	r24, Y+3	; 0x03
    1ff8:	61 e0       	ldi	r22, 0x01	; 1
    1ffa:	0e 94 28 02 	call	0x450	; 0x450 <Dio_setPinVal>
				Dio_setPinVal(CopyPinsEnable.EN_4, Status_Pin_High);
    1ffe:	8c 81       	ldd	r24, Y+4	; 0x04
    2000:	61 e0       	ldi	r22, 0x01	; 1
    2002:	0e 94 28 02 	call	0x450	; 0x450 <Dio_setPinVal>
				Dio_setPinVal(CopyPinsEnable.EN_5, Status_Pin_High);
    2006:	8d 81       	ldd	r24, Y+5	; 0x05
    2008:	61 e0       	ldi	r22, 0x01	; 1
    200a:	0e 94 28 02 	call	0x450	; 0x450 <Dio_setPinVal>
				Dio_setPinVal(CopyPinsEnable.EN_6, Status_Pin_High);
    200e:	8e 81       	ldd	r24, Y+6	; 0x06
    2010:	61 e0       	ldi	r22, 0x01	; 1
    2012:	0e 94 28 02 	call	0x450	; 0x450 <Dio_setPinVal>
				break;
    2016:	00 00       	nop
			default:
				break;
		}
	}
	else{}
}
    2018:	00 00       	nop
    201a:	28 96       	adiw	r28, 0x08	; 8
    201c:	0f b6       	in	r0, 0x3f	; 63
    201e:	f8 94       	cli
    2020:	de bf       	out	0x3e, r29	; 62
    2022:	0f be       	out	0x3f, r0	; 63
    2024:	cd bf       	out	0x3d, r28	; 61
    2026:	df 91       	pop	r29
    2028:	cf 91       	pop	r28
    202a:	0f 91       	pop	r16
    202c:	08 95       	ret

0000202e <main>:
 */
/********** SECTION : Includes **********/
#include "Main_Init.h"
/********** SECTION : Main Function **********/
int main (void)
{
    202e:	cf 93       	push	r28
    2030:	df 93       	push	r29
    2032:	cd b7       	in	r28, 0x3d	; 61
    2034:	de b7       	in	r29, 0x3e	; 62
	App_Init();
    2036:	0e 94 af 0d 	call	0x1b5e	; 0x1b5e <App_Init>
	while(1)
	{
		App_Loop();
    203a:	0e 94 b7 0d 	call	0x1b6e	; 0x1b6e <App_Loop>
    203e:	fd cf       	rjmp	.-6      	; 0x203a <main+0xc>

00002040 <__tablejump2__>:
    2040:	ee 0f       	add	r30, r30
    2042:	ff 1f       	adc	r31, r31
    2044:	05 90       	lpm	r0, Z+
    2046:	f4 91       	lpm	r31, Z
    2048:	e0 2d       	mov	r30, r0
    204a:	09 94       	ijmp

0000204c <__cmpsf2>:
    204c:	0e 94 cc 10 	call	0x2198	; 0x2198 <__fp_cmp>
    2050:	08 f4       	brcc	.+2      	; 0x2054 <__cmpsf2+0x8>
    2052:	81 e0       	ldi	r24, 0x01	; 1
    2054:	08 95       	ret

00002056 <__divsf3>:
    2056:	0e 94 3f 10 	call	0x207e	; 0x207e <__divsf3x>
    205a:	0c 94 07 11 	jmp	0x220e	; 0x220e <__fp_round>
    205e:	0e 94 00 11 	call	0x2200	; 0x2200 <__fp_pscB>
    2062:	58 f0       	brcs	.+22     	; 0x207a <__divsf3+0x24>
    2064:	0e 94 f9 10 	call	0x21f2	; 0x21f2 <__fp_pscA>
    2068:	40 f0       	brcs	.+16     	; 0x207a <__divsf3+0x24>
    206a:	29 f4       	brne	.+10     	; 0x2076 <__divsf3+0x20>
    206c:	5f 3f       	cpi	r21, 0xFF	; 255
    206e:	29 f0       	breq	.+10     	; 0x207a <__divsf3+0x24>
    2070:	0c 94 f0 10 	jmp	0x21e0	; 0x21e0 <__fp_inf>
    2074:	51 11       	cpse	r21, r1
    2076:	0c 94 3b 11 	jmp	0x2276	; 0x2276 <__fp_szero>
    207a:	0c 94 f6 10 	jmp	0x21ec	; 0x21ec <__fp_nan>

0000207e <__divsf3x>:
    207e:	0e 94 18 11 	call	0x2230	; 0x2230 <__fp_split3>
    2082:	68 f3       	brcs	.-38     	; 0x205e <__divsf3+0x8>

00002084 <__divsf3_pse>:
    2084:	99 23       	and	r25, r25
    2086:	b1 f3       	breq	.-20     	; 0x2074 <__divsf3+0x1e>
    2088:	55 23       	and	r21, r21
    208a:	91 f3       	breq	.-28     	; 0x2070 <__divsf3+0x1a>
    208c:	95 1b       	sub	r25, r21
    208e:	55 0b       	sbc	r21, r21
    2090:	bb 27       	eor	r27, r27
    2092:	aa 27       	eor	r26, r26
    2094:	62 17       	cp	r22, r18
    2096:	73 07       	cpc	r23, r19
    2098:	84 07       	cpc	r24, r20
    209a:	38 f0       	brcs	.+14     	; 0x20aa <__divsf3_pse+0x26>
    209c:	9f 5f       	subi	r25, 0xFF	; 255
    209e:	5f 4f       	sbci	r21, 0xFF	; 255
    20a0:	22 0f       	add	r18, r18
    20a2:	33 1f       	adc	r19, r19
    20a4:	44 1f       	adc	r20, r20
    20a6:	aa 1f       	adc	r26, r26
    20a8:	a9 f3       	breq	.-22     	; 0x2094 <__divsf3_pse+0x10>
    20aa:	35 d0       	rcall	.+106    	; 0x2116 <__divsf3_pse+0x92>
    20ac:	0e 2e       	mov	r0, r30
    20ae:	3a f0       	brmi	.+14     	; 0x20be <__divsf3_pse+0x3a>
    20b0:	e0 e8       	ldi	r30, 0x80	; 128
    20b2:	32 d0       	rcall	.+100    	; 0x2118 <__divsf3_pse+0x94>
    20b4:	91 50       	subi	r25, 0x01	; 1
    20b6:	50 40       	sbci	r21, 0x00	; 0
    20b8:	e6 95       	lsr	r30
    20ba:	00 1c       	adc	r0, r0
    20bc:	ca f7       	brpl	.-14     	; 0x20b0 <__divsf3_pse+0x2c>
    20be:	2b d0       	rcall	.+86     	; 0x2116 <__divsf3_pse+0x92>
    20c0:	fe 2f       	mov	r31, r30
    20c2:	29 d0       	rcall	.+82     	; 0x2116 <__divsf3_pse+0x92>
    20c4:	66 0f       	add	r22, r22
    20c6:	77 1f       	adc	r23, r23
    20c8:	88 1f       	adc	r24, r24
    20ca:	bb 1f       	adc	r27, r27
    20cc:	26 17       	cp	r18, r22
    20ce:	37 07       	cpc	r19, r23
    20d0:	48 07       	cpc	r20, r24
    20d2:	ab 07       	cpc	r26, r27
    20d4:	b0 e8       	ldi	r27, 0x80	; 128
    20d6:	09 f0       	breq	.+2      	; 0x20da <__divsf3_pse+0x56>
    20d8:	bb 0b       	sbc	r27, r27
    20da:	80 2d       	mov	r24, r0
    20dc:	bf 01       	movw	r22, r30
    20de:	ff 27       	eor	r31, r31
    20e0:	93 58       	subi	r25, 0x83	; 131
    20e2:	5f 4f       	sbci	r21, 0xFF	; 255
    20e4:	3a f0       	brmi	.+14     	; 0x20f4 <__divsf3_pse+0x70>
    20e6:	9e 3f       	cpi	r25, 0xFE	; 254
    20e8:	51 05       	cpc	r21, r1
    20ea:	78 f0       	brcs	.+30     	; 0x210a <__divsf3_pse+0x86>
    20ec:	0c 94 f0 10 	jmp	0x21e0	; 0x21e0 <__fp_inf>
    20f0:	0c 94 3b 11 	jmp	0x2276	; 0x2276 <__fp_szero>
    20f4:	5f 3f       	cpi	r21, 0xFF	; 255
    20f6:	e4 f3       	brlt	.-8      	; 0x20f0 <__divsf3_pse+0x6c>
    20f8:	98 3e       	cpi	r25, 0xE8	; 232
    20fa:	d4 f3       	brlt	.-12     	; 0x20f0 <__divsf3_pse+0x6c>
    20fc:	86 95       	lsr	r24
    20fe:	77 95       	ror	r23
    2100:	67 95       	ror	r22
    2102:	b7 95       	ror	r27
    2104:	f7 95       	ror	r31
    2106:	9f 5f       	subi	r25, 0xFF	; 255
    2108:	c9 f7       	brne	.-14     	; 0x20fc <__divsf3_pse+0x78>
    210a:	88 0f       	add	r24, r24
    210c:	91 1d       	adc	r25, r1
    210e:	96 95       	lsr	r25
    2110:	87 95       	ror	r24
    2112:	97 f9       	bld	r25, 7
    2114:	08 95       	ret
    2116:	e1 e0       	ldi	r30, 0x01	; 1
    2118:	66 0f       	add	r22, r22
    211a:	77 1f       	adc	r23, r23
    211c:	88 1f       	adc	r24, r24
    211e:	bb 1f       	adc	r27, r27
    2120:	62 17       	cp	r22, r18
    2122:	73 07       	cpc	r23, r19
    2124:	84 07       	cpc	r24, r20
    2126:	ba 07       	cpc	r27, r26
    2128:	20 f0       	brcs	.+8      	; 0x2132 <__divsf3_pse+0xae>
    212a:	62 1b       	sub	r22, r18
    212c:	73 0b       	sbc	r23, r19
    212e:	84 0b       	sbc	r24, r20
    2130:	ba 0b       	sbc	r27, r26
    2132:	ee 1f       	adc	r30, r30
    2134:	88 f7       	brcc	.-30     	; 0x2118 <__divsf3_pse+0x94>
    2136:	e0 95       	com	r30
    2138:	08 95       	ret

0000213a <__fixunssfsi>:
    213a:	0e 94 20 11 	call	0x2240	; 0x2240 <__fp_splitA>
    213e:	88 f0       	brcs	.+34     	; 0x2162 <__fixunssfsi+0x28>
    2140:	9f 57       	subi	r25, 0x7F	; 127
    2142:	98 f0       	brcs	.+38     	; 0x216a <__fixunssfsi+0x30>
    2144:	b9 2f       	mov	r27, r25
    2146:	99 27       	eor	r25, r25
    2148:	b7 51       	subi	r27, 0x17	; 23
    214a:	b0 f0       	brcs	.+44     	; 0x2178 <__fixunssfsi+0x3e>
    214c:	e1 f0       	breq	.+56     	; 0x2186 <__fixunssfsi+0x4c>
    214e:	66 0f       	add	r22, r22
    2150:	77 1f       	adc	r23, r23
    2152:	88 1f       	adc	r24, r24
    2154:	99 1f       	adc	r25, r25
    2156:	1a f0       	brmi	.+6      	; 0x215e <__fixunssfsi+0x24>
    2158:	ba 95       	dec	r27
    215a:	c9 f7       	brne	.-14     	; 0x214e <__fixunssfsi+0x14>
    215c:	14 c0       	rjmp	.+40     	; 0x2186 <__fixunssfsi+0x4c>
    215e:	b1 30       	cpi	r27, 0x01	; 1
    2160:	91 f0       	breq	.+36     	; 0x2186 <__fixunssfsi+0x4c>
    2162:	0e 94 3a 11 	call	0x2274	; 0x2274 <__fp_zero>
    2166:	b1 e0       	ldi	r27, 0x01	; 1
    2168:	08 95       	ret
    216a:	0c 94 3a 11 	jmp	0x2274	; 0x2274 <__fp_zero>
    216e:	67 2f       	mov	r22, r23
    2170:	78 2f       	mov	r23, r24
    2172:	88 27       	eor	r24, r24
    2174:	b8 5f       	subi	r27, 0xF8	; 248
    2176:	39 f0       	breq	.+14     	; 0x2186 <__fixunssfsi+0x4c>
    2178:	b9 3f       	cpi	r27, 0xF9	; 249
    217a:	cc f3       	brlt	.-14     	; 0x216e <__fixunssfsi+0x34>
    217c:	86 95       	lsr	r24
    217e:	77 95       	ror	r23
    2180:	67 95       	ror	r22
    2182:	b3 95       	inc	r27
    2184:	d9 f7       	brne	.-10     	; 0x217c <__fixunssfsi+0x42>
    2186:	3e f4       	brtc	.+14     	; 0x2196 <__fixunssfsi+0x5c>
    2188:	90 95       	com	r25
    218a:	80 95       	com	r24
    218c:	70 95       	com	r23
    218e:	61 95       	neg	r22
    2190:	7f 4f       	sbci	r23, 0xFF	; 255
    2192:	8f 4f       	sbci	r24, 0xFF	; 255
    2194:	9f 4f       	sbci	r25, 0xFF	; 255
    2196:	08 95       	ret

00002198 <__fp_cmp>:
    2198:	99 0f       	add	r25, r25
    219a:	00 08       	sbc	r0, r0
    219c:	55 0f       	add	r21, r21
    219e:	aa 0b       	sbc	r26, r26
    21a0:	e0 e8       	ldi	r30, 0x80	; 128
    21a2:	fe ef       	ldi	r31, 0xFE	; 254
    21a4:	16 16       	cp	r1, r22
    21a6:	17 06       	cpc	r1, r23
    21a8:	e8 07       	cpc	r30, r24
    21aa:	f9 07       	cpc	r31, r25
    21ac:	c0 f0       	brcs	.+48     	; 0x21de <__fp_cmp+0x46>
    21ae:	12 16       	cp	r1, r18
    21b0:	13 06       	cpc	r1, r19
    21b2:	e4 07       	cpc	r30, r20
    21b4:	f5 07       	cpc	r31, r21
    21b6:	98 f0       	brcs	.+38     	; 0x21de <__fp_cmp+0x46>
    21b8:	62 1b       	sub	r22, r18
    21ba:	73 0b       	sbc	r23, r19
    21bc:	84 0b       	sbc	r24, r20
    21be:	95 0b       	sbc	r25, r21
    21c0:	39 f4       	brne	.+14     	; 0x21d0 <__fp_cmp+0x38>
    21c2:	0a 26       	eor	r0, r26
    21c4:	61 f0       	breq	.+24     	; 0x21de <__fp_cmp+0x46>
    21c6:	23 2b       	or	r18, r19
    21c8:	24 2b       	or	r18, r20
    21ca:	25 2b       	or	r18, r21
    21cc:	21 f4       	brne	.+8      	; 0x21d6 <__fp_cmp+0x3e>
    21ce:	08 95       	ret
    21d0:	0a 26       	eor	r0, r26
    21d2:	09 f4       	brne	.+2      	; 0x21d6 <__fp_cmp+0x3e>
    21d4:	a1 40       	sbci	r26, 0x01	; 1
    21d6:	a6 95       	lsr	r26
    21d8:	8f ef       	ldi	r24, 0xFF	; 255
    21da:	81 1d       	adc	r24, r1
    21dc:	81 1d       	adc	r24, r1
    21de:	08 95       	ret

000021e0 <__fp_inf>:
    21e0:	97 f9       	bld	r25, 7
    21e2:	9f 67       	ori	r25, 0x7F	; 127
    21e4:	80 e8       	ldi	r24, 0x80	; 128
    21e6:	70 e0       	ldi	r23, 0x00	; 0
    21e8:	60 e0       	ldi	r22, 0x00	; 0
    21ea:	08 95       	ret

000021ec <__fp_nan>:
    21ec:	9f ef       	ldi	r25, 0xFF	; 255
    21ee:	80 ec       	ldi	r24, 0xC0	; 192
    21f0:	08 95       	ret

000021f2 <__fp_pscA>:
    21f2:	00 24       	eor	r0, r0
    21f4:	0a 94       	dec	r0
    21f6:	16 16       	cp	r1, r22
    21f8:	17 06       	cpc	r1, r23
    21fa:	18 06       	cpc	r1, r24
    21fc:	09 06       	cpc	r0, r25
    21fe:	08 95       	ret

00002200 <__fp_pscB>:
    2200:	00 24       	eor	r0, r0
    2202:	0a 94       	dec	r0
    2204:	12 16       	cp	r1, r18
    2206:	13 06       	cpc	r1, r19
    2208:	14 06       	cpc	r1, r20
    220a:	05 06       	cpc	r0, r21
    220c:	08 95       	ret

0000220e <__fp_round>:
    220e:	09 2e       	mov	r0, r25
    2210:	03 94       	inc	r0
    2212:	00 0c       	add	r0, r0
    2214:	11 f4       	brne	.+4      	; 0x221a <__fp_round+0xc>
    2216:	88 23       	and	r24, r24
    2218:	52 f0       	brmi	.+20     	; 0x222e <__fp_round+0x20>
    221a:	bb 0f       	add	r27, r27
    221c:	40 f4       	brcc	.+16     	; 0x222e <__fp_round+0x20>
    221e:	bf 2b       	or	r27, r31
    2220:	11 f4       	brne	.+4      	; 0x2226 <__fp_round+0x18>
    2222:	60 ff       	sbrs	r22, 0
    2224:	04 c0       	rjmp	.+8      	; 0x222e <__fp_round+0x20>
    2226:	6f 5f       	subi	r22, 0xFF	; 255
    2228:	7f 4f       	sbci	r23, 0xFF	; 255
    222a:	8f 4f       	sbci	r24, 0xFF	; 255
    222c:	9f 4f       	sbci	r25, 0xFF	; 255
    222e:	08 95       	ret

00002230 <__fp_split3>:
    2230:	57 fd       	sbrc	r21, 7
    2232:	90 58       	subi	r25, 0x80	; 128
    2234:	44 0f       	add	r20, r20
    2236:	55 1f       	adc	r21, r21
    2238:	59 f0       	breq	.+22     	; 0x2250 <__fp_splitA+0x10>
    223a:	5f 3f       	cpi	r21, 0xFF	; 255
    223c:	71 f0       	breq	.+28     	; 0x225a <__fp_splitA+0x1a>
    223e:	47 95       	ror	r20

00002240 <__fp_splitA>:
    2240:	88 0f       	add	r24, r24
    2242:	97 fb       	bst	r25, 7
    2244:	99 1f       	adc	r25, r25
    2246:	61 f0       	breq	.+24     	; 0x2260 <__fp_splitA+0x20>
    2248:	9f 3f       	cpi	r25, 0xFF	; 255
    224a:	79 f0       	breq	.+30     	; 0x226a <__fp_splitA+0x2a>
    224c:	87 95       	ror	r24
    224e:	08 95       	ret
    2250:	12 16       	cp	r1, r18
    2252:	13 06       	cpc	r1, r19
    2254:	14 06       	cpc	r1, r20
    2256:	55 1f       	adc	r21, r21
    2258:	f2 cf       	rjmp	.-28     	; 0x223e <__fp_split3+0xe>
    225a:	46 95       	lsr	r20
    225c:	f1 df       	rcall	.-30     	; 0x2240 <__fp_splitA>
    225e:	08 c0       	rjmp	.+16     	; 0x2270 <__fp_splitA+0x30>
    2260:	16 16       	cp	r1, r22
    2262:	17 06       	cpc	r1, r23
    2264:	18 06       	cpc	r1, r24
    2266:	99 1f       	adc	r25, r25
    2268:	f1 cf       	rjmp	.-30     	; 0x224c <__fp_splitA+0xc>
    226a:	86 95       	lsr	r24
    226c:	71 05       	cpc	r23, r1
    226e:	61 05       	cpc	r22, r1
    2270:	08 94       	sec
    2272:	08 95       	ret

00002274 <__fp_zero>:
    2274:	e8 94       	clt

00002276 <__fp_szero>:
    2276:	bb 27       	eor	r27, r27
    2278:	66 27       	eor	r22, r22
    227a:	77 27       	eor	r23, r23
    227c:	cb 01       	movw	r24, r22
    227e:	97 f9       	bld	r25, 7
    2280:	08 95       	ret

00002282 <__gesf2>:
    2282:	0e 94 cc 10 	call	0x2198	; 0x2198 <__fp_cmp>
    2286:	08 f4       	brcc	.+2      	; 0x228a <__gesf2+0x8>
    2288:	8f ef       	ldi	r24, 0xFF	; 255
    228a:	08 95       	ret

0000228c <__mulsf3>:
    228c:	0e 94 59 11 	call	0x22b2	; 0x22b2 <__mulsf3x>
    2290:	0c 94 07 11 	jmp	0x220e	; 0x220e <__fp_round>
    2294:	0e 94 f9 10 	call	0x21f2	; 0x21f2 <__fp_pscA>
    2298:	38 f0       	brcs	.+14     	; 0x22a8 <__mulsf3+0x1c>
    229a:	0e 94 00 11 	call	0x2200	; 0x2200 <__fp_pscB>
    229e:	20 f0       	brcs	.+8      	; 0x22a8 <__mulsf3+0x1c>
    22a0:	95 23       	and	r25, r21
    22a2:	11 f0       	breq	.+4      	; 0x22a8 <__mulsf3+0x1c>
    22a4:	0c 94 f0 10 	jmp	0x21e0	; 0x21e0 <__fp_inf>
    22a8:	0c 94 f6 10 	jmp	0x21ec	; 0x21ec <__fp_nan>
    22ac:	11 24       	eor	r1, r1
    22ae:	0c 94 3b 11 	jmp	0x2276	; 0x2276 <__fp_szero>

000022b2 <__mulsf3x>:
    22b2:	0e 94 18 11 	call	0x2230	; 0x2230 <__fp_split3>
    22b6:	70 f3       	brcs	.-36     	; 0x2294 <__mulsf3+0x8>

000022b8 <__mulsf3_pse>:
    22b8:	95 9f       	mul	r25, r21
    22ba:	c1 f3       	breq	.-16     	; 0x22ac <__mulsf3+0x20>
    22bc:	95 0f       	add	r25, r21
    22be:	50 e0       	ldi	r21, 0x00	; 0
    22c0:	55 1f       	adc	r21, r21
    22c2:	62 9f       	mul	r22, r18
    22c4:	f0 01       	movw	r30, r0
    22c6:	72 9f       	mul	r23, r18
    22c8:	bb 27       	eor	r27, r27
    22ca:	f0 0d       	add	r31, r0
    22cc:	b1 1d       	adc	r27, r1
    22ce:	63 9f       	mul	r22, r19
    22d0:	aa 27       	eor	r26, r26
    22d2:	f0 0d       	add	r31, r0
    22d4:	b1 1d       	adc	r27, r1
    22d6:	aa 1f       	adc	r26, r26
    22d8:	64 9f       	mul	r22, r20
    22da:	66 27       	eor	r22, r22
    22dc:	b0 0d       	add	r27, r0
    22de:	a1 1d       	adc	r26, r1
    22e0:	66 1f       	adc	r22, r22
    22e2:	82 9f       	mul	r24, r18
    22e4:	22 27       	eor	r18, r18
    22e6:	b0 0d       	add	r27, r0
    22e8:	a1 1d       	adc	r26, r1
    22ea:	62 1f       	adc	r22, r18
    22ec:	73 9f       	mul	r23, r19
    22ee:	b0 0d       	add	r27, r0
    22f0:	a1 1d       	adc	r26, r1
    22f2:	62 1f       	adc	r22, r18
    22f4:	83 9f       	mul	r24, r19
    22f6:	a0 0d       	add	r26, r0
    22f8:	61 1d       	adc	r22, r1
    22fa:	22 1f       	adc	r18, r18
    22fc:	74 9f       	mul	r23, r20
    22fe:	33 27       	eor	r19, r19
    2300:	a0 0d       	add	r26, r0
    2302:	61 1d       	adc	r22, r1
    2304:	23 1f       	adc	r18, r19
    2306:	84 9f       	mul	r24, r20
    2308:	60 0d       	add	r22, r0
    230a:	21 1d       	adc	r18, r1
    230c:	82 2f       	mov	r24, r18
    230e:	76 2f       	mov	r23, r22
    2310:	6a 2f       	mov	r22, r26
    2312:	11 24       	eor	r1, r1
    2314:	9f 57       	subi	r25, 0x7F	; 127
    2316:	50 40       	sbci	r21, 0x00	; 0
    2318:	9a f0       	brmi	.+38     	; 0x2340 <__mulsf3_pse+0x88>
    231a:	f1 f0       	breq	.+60     	; 0x2358 <__mulsf3_pse+0xa0>
    231c:	88 23       	and	r24, r24
    231e:	4a f0       	brmi	.+18     	; 0x2332 <__mulsf3_pse+0x7a>
    2320:	ee 0f       	add	r30, r30
    2322:	ff 1f       	adc	r31, r31
    2324:	bb 1f       	adc	r27, r27
    2326:	66 1f       	adc	r22, r22
    2328:	77 1f       	adc	r23, r23
    232a:	88 1f       	adc	r24, r24
    232c:	91 50       	subi	r25, 0x01	; 1
    232e:	50 40       	sbci	r21, 0x00	; 0
    2330:	a9 f7       	brne	.-22     	; 0x231c <__mulsf3_pse+0x64>
    2332:	9e 3f       	cpi	r25, 0xFE	; 254
    2334:	51 05       	cpc	r21, r1
    2336:	80 f0       	brcs	.+32     	; 0x2358 <__mulsf3_pse+0xa0>
    2338:	0c 94 f0 10 	jmp	0x21e0	; 0x21e0 <__fp_inf>
    233c:	0c 94 3b 11 	jmp	0x2276	; 0x2276 <__fp_szero>
    2340:	5f 3f       	cpi	r21, 0xFF	; 255
    2342:	e4 f3       	brlt	.-8      	; 0x233c <__mulsf3_pse+0x84>
    2344:	98 3e       	cpi	r25, 0xE8	; 232
    2346:	d4 f3       	brlt	.-12     	; 0x233c <__mulsf3_pse+0x84>
    2348:	86 95       	lsr	r24
    234a:	77 95       	ror	r23
    234c:	67 95       	ror	r22
    234e:	b7 95       	ror	r27
    2350:	f7 95       	ror	r31
    2352:	e7 95       	ror	r30
    2354:	9f 5f       	subi	r25, 0xFF	; 255
    2356:	c1 f7       	brne	.-16     	; 0x2348 <__mulsf3_pse+0x90>
    2358:	fe 2b       	or	r31, r30
    235a:	88 0f       	add	r24, r24
    235c:	91 1d       	adc	r25, r1
    235e:	96 95       	lsr	r25
    2360:	87 95       	ror	r24
    2362:	97 f9       	bld	r25, 7
    2364:	08 95       	ret

00002366 <memset>:
    2366:	dc 01       	movw	r26, r24
    2368:	01 c0       	rjmp	.+2      	; 0x236c <memset+0x6>
    236a:	6d 93       	st	X+, r22
    236c:	41 50       	subi	r20, 0x01	; 1
    236e:	50 40       	sbci	r21, 0x00	; 0
    2370:	e0 f7       	brcc	.-8      	; 0x236a <memset+0x4>
    2372:	08 95       	ret

00002374 <sprintf>:
    2374:	ae e0       	ldi	r26, 0x0E	; 14
    2376:	b0 e0       	ldi	r27, 0x00	; 0
    2378:	e0 ec       	ldi	r30, 0xC0	; 192
    237a:	f1 e1       	ldi	r31, 0x11	; 17
    237c:	0c 94 69 14 	jmp	0x28d2	; 0x28d2 <__prologue_saves__+0x1c>
    2380:	0d 89       	ldd	r16, Y+21	; 0x15
    2382:	1e 89       	ldd	r17, Y+22	; 0x16
    2384:	86 e0       	ldi	r24, 0x06	; 6
    2386:	8c 83       	std	Y+4, r24	; 0x04
    2388:	1a 83       	std	Y+2, r17	; 0x02
    238a:	09 83       	std	Y+1, r16	; 0x01
    238c:	8f ef       	ldi	r24, 0xFF	; 255
    238e:	9f e7       	ldi	r25, 0x7F	; 127
    2390:	9e 83       	std	Y+6, r25	; 0x06
    2392:	8d 83       	std	Y+5, r24	; 0x05
    2394:	ae 01       	movw	r20, r28
    2396:	47 5e       	subi	r20, 0xE7	; 231
    2398:	5f 4f       	sbci	r21, 0xFF	; 255
    239a:	6f 89       	ldd	r22, Y+23	; 0x17
    239c:	78 8d       	ldd	r23, Y+24	; 0x18
    239e:	ce 01       	movw	r24, r28
    23a0:	01 96       	adiw	r24, 0x01	; 1
    23a2:	0e 94 dd 11 	call	0x23ba	; 0x23ba <vfprintf>
    23a6:	2f 81       	ldd	r18, Y+7	; 0x07
    23a8:	38 85       	ldd	r19, Y+8	; 0x08
    23aa:	02 0f       	add	r16, r18
    23ac:	13 1f       	adc	r17, r19
    23ae:	f8 01       	movw	r30, r16
    23b0:	10 82       	st	Z, r1
    23b2:	2e 96       	adiw	r28, 0x0e	; 14
    23b4:	e4 e0       	ldi	r30, 0x04	; 4
    23b6:	0c 94 85 14 	jmp	0x290a	; 0x290a <__epilogue_restores__+0x1c>

000023ba <vfprintf>:
    23ba:	ab e0       	ldi	r26, 0x0B	; 11
    23bc:	b0 e0       	ldi	r27, 0x00	; 0
    23be:	e3 ee       	ldi	r30, 0xE3	; 227
    23c0:	f1 e1       	ldi	r31, 0x11	; 17
    23c2:	0c 94 5b 14 	jmp	0x28b6	; 0x28b6 <__prologue_saves__>
    23c6:	7c 01       	movw	r14, r24
    23c8:	3b 01       	movw	r6, r22
    23ca:	8a 01       	movw	r16, r20
    23cc:	fc 01       	movw	r30, r24
    23ce:	17 82       	std	Z+7, r1	; 0x07
    23d0:	16 82       	std	Z+6, r1	; 0x06
    23d2:	83 81       	ldd	r24, Z+3	; 0x03
    23d4:	81 ff       	sbrs	r24, 1
    23d6:	c8 c1       	rjmp	.+912    	; 0x2768 <vfprintf+0x3ae>
    23d8:	ce 01       	movw	r24, r28
    23da:	01 96       	adiw	r24, 0x01	; 1
    23dc:	5c 01       	movw	r10, r24
    23de:	f7 01       	movw	r30, r14
    23e0:	93 81       	ldd	r25, Z+3	; 0x03
    23e2:	f3 01       	movw	r30, r6
    23e4:	93 fd       	sbrc	r25, 3
    23e6:	85 91       	lpm	r24, Z+
    23e8:	93 ff       	sbrs	r25, 3
    23ea:	81 91       	ld	r24, Z+
    23ec:	3f 01       	movw	r6, r30
    23ee:	88 23       	and	r24, r24
    23f0:	09 f4       	brne	.+2      	; 0x23f4 <vfprintf+0x3a>
    23f2:	53 c1       	rjmp	.+678    	; 0x269a <vfprintf+0x2e0>
    23f4:	85 32       	cpi	r24, 0x25	; 37
    23f6:	39 f4       	brne	.+14     	; 0x2406 <vfprintf+0x4c>
    23f8:	93 fd       	sbrc	r25, 3
    23fa:	85 91       	lpm	r24, Z+
    23fc:	93 ff       	sbrs	r25, 3
    23fe:	81 91       	ld	r24, Z+
    2400:	3f 01       	movw	r6, r30
    2402:	85 32       	cpi	r24, 0x25	; 37
    2404:	29 f4       	brne	.+10     	; 0x2410 <vfprintf+0x56>
    2406:	b7 01       	movw	r22, r14
    2408:	90 e0       	ldi	r25, 0x00	; 0
    240a:	0e 94 cd 13 	call	0x279a	; 0x279a <fputc>
    240e:	e7 cf       	rjmp	.-50     	; 0x23de <vfprintf+0x24>
    2410:	91 2c       	mov	r9, r1
    2412:	21 2c       	mov	r2, r1
    2414:	31 2c       	mov	r3, r1
    2416:	ff e1       	ldi	r31, 0x1F	; 31
    2418:	f3 15       	cp	r31, r3
    241a:	38 f0       	brcs	.+14     	; 0x242a <vfprintf+0x70>
    241c:	8b 32       	cpi	r24, 0x2B	; 43
    241e:	11 f1       	breq	.+68     	; 0x2464 <vfprintf+0xaa>
    2420:	90 f4       	brcc	.+36     	; 0x2446 <vfprintf+0x8c>
    2422:	80 32       	cpi	r24, 0x20	; 32
    2424:	09 f1       	breq	.+66     	; 0x2468 <vfprintf+0xae>
    2426:	83 32       	cpi	r24, 0x23	; 35
    2428:	29 f1       	breq	.+74     	; 0x2474 <vfprintf+0xba>
    242a:	37 fc       	sbrc	r3, 7
    242c:	3c c0       	rjmp	.+120    	; 0x24a6 <vfprintf+0xec>
    242e:	20 ed       	ldi	r18, 0xD0	; 208
    2430:	28 0f       	add	r18, r24
    2432:	2a 30       	cpi	r18, 0x0A	; 10
    2434:	50 f5       	brcc	.+84     	; 0x248a <vfprintf+0xd0>
    2436:	36 fe       	sbrs	r3, 6
    2438:	20 c0       	rjmp	.+64     	; 0x247a <vfprintf+0xc0>
    243a:	8a e0       	ldi	r24, 0x0A	; 10
    243c:	98 9e       	mul	r9, r24
    243e:	20 0d       	add	r18, r0
    2440:	11 24       	eor	r1, r1
    2442:	92 2e       	mov	r9, r18
    2444:	06 c0       	rjmp	.+12     	; 0x2452 <vfprintf+0x98>
    2446:	8d 32       	cpi	r24, 0x2D	; 45
    2448:	91 f0       	breq	.+36     	; 0x246e <vfprintf+0xb4>
    244a:	80 33       	cpi	r24, 0x30	; 48
    244c:	71 f7       	brne	.-36     	; 0x242a <vfprintf+0x70>
    244e:	68 94       	set
    2450:	30 f8       	bld	r3, 0
    2452:	f3 01       	movw	r30, r6
    2454:	93 fd       	sbrc	r25, 3
    2456:	85 91       	lpm	r24, Z+
    2458:	93 ff       	sbrs	r25, 3
    245a:	81 91       	ld	r24, Z+
    245c:	3f 01       	movw	r6, r30
    245e:	81 11       	cpse	r24, r1
    2460:	da cf       	rjmp	.-76     	; 0x2416 <vfprintf+0x5c>
    2462:	21 c0       	rjmp	.+66     	; 0x24a6 <vfprintf+0xec>
    2464:	68 94       	set
    2466:	31 f8       	bld	r3, 1
    2468:	68 94       	set
    246a:	32 f8       	bld	r3, 2
    246c:	f2 cf       	rjmp	.-28     	; 0x2452 <vfprintf+0x98>
    246e:	68 94       	set
    2470:	33 f8       	bld	r3, 3
    2472:	ef cf       	rjmp	.-34     	; 0x2452 <vfprintf+0x98>
    2474:	68 94       	set
    2476:	34 f8       	bld	r3, 4
    2478:	ec cf       	rjmp	.-40     	; 0x2452 <vfprintf+0x98>
    247a:	ea e0       	ldi	r30, 0x0A	; 10
    247c:	2e 9e       	mul	r2, r30
    247e:	20 0d       	add	r18, r0
    2480:	11 24       	eor	r1, r1
    2482:	22 2e       	mov	r2, r18
    2484:	68 94       	set
    2486:	35 f8       	bld	r3, 5
    2488:	e4 cf       	rjmp	.-56     	; 0x2452 <vfprintf+0x98>
    248a:	8e 32       	cpi	r24, 0x2E	; 46
    248c:	29 f4       	brne	.+10     	; 0x2498 <vfprintf+0xde>
    248e:	36 fc       	sbrc	r3, 6
    2490:	04 c1       	rjmp	.+520    	; 0x269a <vfprintf+0x2e0>
    2492:	68 94       	set
    2494:	36 f8       	bld	r3, 6
    2496:	dd cf       	rjmp	.-70     	; 0x2452 <vfprintf+0x98>
    2498:	8c 36       	cpi	r24, 0x6C	; 108
    249a:	19 f4       	brne	.+6      	; 0x24a2 <vfprintf+0xe8>
    249c:	68 94       	set
    249e:	37 f8       	bld	r3, 7
    24a0:	d8 cf       	rjmp	.-80     	; 0x2452 <vfprintf+0x98>
    24a2:	88 36       	cpi	r24, 0x68	; 104
    24a4:	b1 f2       	breq	.-84     	; 0x2452 <vfprintf+0x98>
    24a6:	98 2f       	mov	r25, r24
    24a8:	9f 7d       	andi	r25, 0xDF	; 223
    24aa:	95 54       	subi	r25, 0x45	; 69
    24ac:	93 30       	cpi	r25, 0x03	; 3
    24ae:	e0 f0       	brcs	.+56     	; 0x24e8 <vfprintf+0x12e>
    24b0:	83 36       	cpi	r24, 0x63	; 99
    24b2:	a1 f1       	breq	.+104    	; 0x251c <vfprintf+0x162>
    24b4:	83 37       	cpi	r24, 0x73	; 115
    24b6:	c1 f1       	breq	.+112    	; 0x2528 <vfprintf+0x16e>
    24b8:	83 35       	cpi	r24, 0x53	; 83
    24ba:	09 f0       	breq	.+2      	; 0x24be <vfprintf+0x104>
    24bc:	63 c0       	rjmp	.+198    	; 0x2584 <vfprintf+0x1ca>
    24be:	28 01       	movw	r4, r16
    24c0:	f2 e0       	ldi	r31, 0x02	; 2
    24c2:	4f 0e       	add	r4, r31
    24c4:	51 1c       	adc	r5, r1
    24c6:	f8 01       	movw	r30, r16
    24c8:	c0 80       	ld	r12, Z
    24ca:	d1 80       	ldd	r13, Z+1	; 0x01
    24cc:	69 2d       	mov	r22, r9
    24ce:	70 e0       	ldi	r23, 0x00	; 0
    24d0:	36 fc       	sbrc	r3, 6
    24d2:	02 c0       	rjmp	.+4      	; 0x24d8 <vfprintf+0x11e>
    24d4:	6f ef       	ldi	r22, 0xFF	; 255
    24d6:	7f ef       	ldi	r23, 0xFF	; 255
    24d8:	c6 01       	movw	r24, r12
    24da:	0e 94 b7 13 	call	0x276e	; 0x276e <strnlen_P>
    24de:	4c 01       	movw	r8, r24
    24e0:	68 94       	set
    24e2:	37 f8       	bld	r3, 7
    24e4:	82 01       	movw	r16, r4
    24e6:	0a c0       	rjmp	.+20     	; 0x24fc <vfprintf+0x142>
    24e8:	0c 5f       	subi	r16, 0xFC	; 252
    24ea:	1f 4f       	sbci	r17, 0xFF	; 255
    24ec:	ff e3       	ldi	r31, 0x3F	; 63
    24ee:	f9 83       	std	Y+1, r31	; 0x01
    24f0:	88 24       	eor	r8, r8
    24f2:	83 94       	inc	r8
    24f4:	91 2c       	mov	r9, r1
    24f6:	65 01       	movw	r12, r10
    24f8:	e8 94       	clt
    24fa:	37 f8       	bld	r3, 7
    24fc:	33 fe       	sbrs	r3, 3
    24fe:	2d c0       	rjmp	.+90     	; 0x255a <vfprintf+0x1a0>
    2500:	52 2c       	mov	r5, r2
    2502:	81 14       	cp	r8, r1
    2504:	91 04       	cpc	r9, r1
    2506:	71 f5       	brne	.+92     	; 0x2564 <vfprintf+0x1aa>
    2508:	55 20       	and	r5, r5
    250a:	09 f4       	brne	.+2      	; 0x250e <vfprintf+0x154>
    250c:	68 cf       	rjmp	.-304    	; 0x23de <vfprintf+0x24>
    250e:	b7 01       	movw	r22, r14
    2510:	80 e2       	ldi	r24, 0x20	; 32
    2512:	90 e0       	ldi	r25, 0x00	; 0
    2514:	0e 94 cd 13 	call	0x279a	; 0x279a <fputc>
    2518:	5a 94       	dec	r5
    251a:	f6 cf       	rjmp	.-20     	; 0x2508 <vfprintf+0x14e>
    251c:	f8 01       	movw	r30, r16
    251e:	80 81       	ld	r24, Z
    2520:	89 83       	std	Y+1, r24	; 0x01
    2522:	0e 5f       	subi	r16, 0xFE	; 254
    2524:	1f 4f       	sbci	r17, 0xFF	; 255
    2526:	e4 cf       	rjmp	.-56     	; 0x24f0 <vfprintf+0x136>
    2528:	28 01       	movw	r4, r16
    252a:	f2 e0       	ldi	r31, 0x02	; 2
    252c:	4f 0e       	add	r4, r31
    252e:	51 1c       	adc	r5, r1
    2530:	f8 01       	movw	r30, r16
    2532:	c0 80       	ld	r12, Z
    2534:	d1 80       	ldd	r13, Z+1	; 0x01
    2536:	69 2d       	mov	r22, r9
    2538:	70 e0       	ldi	r23, 0x00	; 0
    253a:	36 fc       	sbrc	r3, 6
    253c:	02 c0       	rjmp	.+4      	; 0x2542 <vfprintf+0x188>
    253e:	6f ef       	ldi	r22, 0xFF	; 255
    2540:	7f ef       	ldi	r23, 0xFF	; 255
    2542:	c6 01       	movw	r24, r12
    2544:	0e 94 c2 13 	call	0x2784	; 0x2784 <strnlen>
    2548:	4c 01       	movw	r8, r24
    254a:	82 01       	movw	r16, r4
    254c:	d5 cf       	rjmp	.-86     	; 0x24f8 <vfprintf+0x13e>
    254e:	b7 01       	movw	r22, r14
    2550:	80 e2       	ldi	r24, 0x20	; 32
    2552:	90 e0       	ldi	r25, 0x00	; 0
    2554:	0e 94 cd 13 	call	0x279a	; 0x279a <fputc>
    2558:	2a 94       	dec	r2
    255a:	28 14       	cp	r2, r8
    255c:	19 04       	cpc	r1, r9
    255e:	09 f0       	breq	.+2      	; 0x2562 <vfprintf+0x1a8>
    2560:	b0 f7       	brcc	.-20     	; 0x254e <vfprintf+0x194>
    2562:	ce cf       	rjmp	.-100    	; 0x2500 <vfprintf+0x146>
    2564:	f6 01       	movw	r30, r12
    2566:	37 fc       	sbrc	r3, 7
    2568:	85 91       	lpm	r24, Z+
    256a:	37 fe       	sbrs	r3, 7
    256c:	81 91       	ld	r24, Z+
    256e:	6f 01       	movw	r12, r30
    2570:	b7 01       	movw	r22, r14
    2572:	90 e0       	ldi	r25, 0x00	; 0
    2574:	0e 94 cd 13 	call	0x279a	; 0x279a <fputc>
    2578:	51 10       	cpse	r5, r1
    257a:	5a 94       	dec	r5
    257c:	f1 e0       	ldi	r31, 0x01	; 1
    257e:	8f 1a       	sub	r8, r31
    2580:	91 08       	sbc	r9, r1
    2582:	bf cf       	rjmp	.-130    	; 0x2502 <vfprintf+0x148>
    2584:	84 36       	cpi	r24, 0x64	; 100
    2586:	19 f0       	breq	.+6      	; 0x258e <vfprintf+0x1d4>
    2588:	89 36       	cpi	r24, 0x69	; 105
    258a:	09 f0       	breq	.+2      	; 0x258e <vfprintf+0x1d4>
    258c:	77 c0       	rjmp	.+238    	; 0x267c <vfprintf+0x2c2>
    258e:	f8 01       	movw	r30, r16
    2590:	37 fe       	sbrs	r3, 7
    2592:	6b c0       	rjmp	.+214    	; 0x266a <vfprintf+0x2b0>
    2594:	60 81       	ld	r22, Z
    2596:	71 81       	ldd	r23, Z+1	; 0x01
    2598:	82 81       	ldd	r24, Z+2	; 0x02
    259a:	93 81       	ldd	r25, Z+3	; 0x03
    259c:	0c 5f       	subi	r16, 0xFC	; 252
    259e:	1f 4f       	sbci	r17, 0xFF	; 255
    25a0:	f3 2d       	mov	r31, r3
    25a2:	ff 76       	andi	r31, 0x6F	; 111
    25a4:	3f 2e       	mov	r3, r31
    25a6:	97 ff       	sbrs	r25, 7
    25a8:	09 c0       	rjmp	.+18     	; 0x25bc <vfprintf+0x202>
    25aa:	90 95       	com	r25
    25ac:	80 95       	com	r24
    25ae:	70 95       	com	r23
    25b0:	61 95       	neg	r22
    25b2:	7f 4f       	sbci	r23, 0xFF	; 255
    25b4:	8f 4f       	sbci	r24, 0xFF	; 255
    25b6:	9f 4f       	sbci	r25, 0xFF	; 255
    25b8:	68 94       	set
    25ba:	37 f8       	bld	r3, 7
    25bc:	2a e0       	ldi	r18, 0x0A	; 10
    25be:	30 e0       	ldi	r19, 0x00	; 0
    25c0:	a5 01       	movw	r20, r10
    25c2:	0e 94 fd 13 	call	0x27fa	; 0x27fa <__ultoa_invert>
    25c6:	c8 2e       	mov	r12, r24
    25c8:	ca 18       	sub	r12, r10
    25ca:	8c 2c       	mov	r8, r12
    25cc:	43 2c       	mov	r4, r3
    25ce:	36 fe       	sbrs	r3, 6
    25d0:	0c c0       	rjmp	.+24     	; 0x25ea <vfprintf+0x230>
    25d2:	e8 94       	clt
    25d4:	40 f8       	bld	r4, 0
    25d6:	c9 14       	cp	r12, r9
    25d8:	40 f4       	brcc	.+16     	; 0x25ea <vfprintf+0x230>
    25da:	34 fe       	sbrs	r3, 4
    25dc:	05 c0       	rjmp	.+10     	; 0x25e8 <vfprintf+0x22e>
    25de:	32 fc       	sbrc	r3, 2
    25e0:	03 c0       	rjmp	.+6      	; 0x25e8 <vfprintf+0x22e>
    25e2:	f3 2d       	mov	r31, r3
    25e4:	fe 7e       	andi	r31, 0xEE	; 238
    25e6:	4f 2e       	mov	r4, r31
    25e8:	89 2c       	mov	r8, r9
    25ea:	44 fe       	sbrs	r4, 4
    25ec:	95 c0       	rjmp	.+298    	; 0x2718 <vfprintf+0x35e>
    25ee:	fe 01       	movw	r30, r28
    25f0:	ec 0d       	add	r30, r12
    25f2:	f1 1d       	adc	r31, r1
    25f4:	80 81       	ld	r24, Z
    25f6:	80 33       	cpi	r24, 0x30	; 48
    25f8:	09 f0       	breq	.+2      	; 0x25fc <vfprintf+0x242>
    25fa:	87 c0       	rjmp	.+270    	; 0x270a <vfprintf+0x350>
    25fc:	24 2d       	mov	r18, r4
    25fe:	29 7e       	andi	r18, 0xE9	; 233
    2600:	42 2e       	mov	r4, r18
    2602:	84 2d       	mov	r24, r4
    2604:	88 70       	andi	r24, 0x08	; 8
    2606:	58 2e       	mov	r5, r24
    2608:	43 fc       	sbrc	r4, 3
    260a:	95 c0       	rjmp	.+298    	; 0x2736 <vfprintf+0x37c>
    260c:	40 fe       	sbrs	r4, 0
    260e:	8f c0       	rjmp	.+286    	; 0x272e <vfprintf+0x374>
    2610:	9c 2c       	mov	r9, r12
    2612:	82 14       	cp	r8, r2
    2614:	18 f4       	brcc	.+6      	; 0x261c <vfprintf+0x262>
    2616:	2c 0c       	add	r2, r12
    2618:	92 2c       	mov	r9, r2
    261a:	98 18       	sub	r9, r8
    261c:	44 fe       	sbrs	r4, 4
    261e:	91 c0       	rjmp	.+290    	; 0x2742 <vfprintf+0x388>
    2620:	b7 01       	movw	r22, r14
    2622:	80 e3       	ldi	r24, 0x30	; 48
    2624:	90 e0       	ldi	r25, 0x00	; 0
    2626:	0e 94 cd 13 	call	0x279a	; 0x279a <fputc>
    262a:	42 fe       	sbrs	r4, 2
    262c:	09 c0       	rjmp	.+18     	; 0x2640 <vfprintf+0x286>
    262e:	88 e7       	ldi	r24, 0x78	; 120
    2630:	90 e0       	ldi	r25, 0x00	; 0
    2632:	41 fe       	sbrs	r4, 1
    2634:	02 c0       	rjmp	.+4      	; 0x263a <vfprintf+0x280>
    2636:	88 e5       	ldi	r24, 0x58	; 88
    2638:	90 e0       	ldi	r25, 0x00	; 0
    263a:	b7 01       	movw	r22, r14
    263c:	0e 94 cd 13 	call	0x279a	; 0x279a <fputc>
    2640:	c9 14       	cp	r12, r9
    2642:	08 f4       	brcc	.+2      	; 0x2646 <vfprintf+0x28c>
    2644:	8a c0       	rjmp	.+276    	; 0x275a <vfprintf+0x3a0>
    2646:	ca 94       	dec	r12
    2648:	d1 2c       	mov	r13, r1
    264a:	9f ef       	ldi	r25, 0xFF	; 255
    264c:	c9 1a       	sub	r12, r25
    264e:	d9 0a       	sbc	r13, r25
    2650:	ca 0c       	add	r12, r10
    2652:	db 1c       	adc	r13, r11
    2654:	f6 01       	movw	r30, r12
    2656:	82 91       	ld	r24, -Z
    2658:	6f 01       	movw	r12, r30
    265a:	b7 01       	movw	r22, r14
    265c:	90 e0       	ldi	r25, 0x00	; 0
    265e:	0e 94 cd 13 	call	0x279a	; 0x279a <fputc>
    2662:	ac 14       	cp	r10, r12
    2664:	bd 04       	cpc	r11, r13
    2666:	b1 f7       	brne	.-20     	; 0x2654 <vfprintf+0x29a>
    2668:	4f cf       	rjmp	.-354    	; 0x2508 <vfprintf+0x14e>
    266a:	60 81       	ld	r22, Z
    266c:	71 81       	ldd	r23, Z+1	; 0x01
    266e:	07 2e       	mov	r0, r23
    2670:	00 0c       	add	r0, r0
    2672:	88 0b       	sbc	r24, r24
    2674:	99 0b       	sbc	r25, r25
    2676:	0e 5f       	subi	r16, 0xFE	; 254
    2678:	1f 4f       	sbci	r17, 0xFF	; 255
    267a:	92 cf       	rjmp	.-220    	; 0x25a0 <vfprintf+0x1e6>
    267c:	d3 2c       	mov	r13, r3
    267e:	e8 94       	clt
    2680:	d4 f8       	bld	r13, 4
    2682:	2a e0       	ldi	r18, 0x0A	; 10
    2684:	30 e0       	ldi	r19, 0x00	; 0
    2686:	85 37       	cpi	r24, 0x75	; 117
    2688:	39 f1       	breq	.+78     	; 0x26d8 <vfprintf+0x31e>
    268a:	23 2d       	mov	r18, r3
    268c:	29 7f       	andi	r18, 0xF9	; 249
    268e:	d2 2e       	mov	r13, r18
    2690:	8f 36       	cpi	r24, 0x6F	; 111
    2692:	01 f1       	breq	.+64     	; 0x26d4 <vfprintf+0x31a>
    2694:	48 f4       	brcc	.+18     	; 0x26a8 <vfprintf+0x2ee>
    2696:	88 35       	cpi	r24, 0x58	; 88
    2698:	a9 f0       	breq	.+42     	; 0x26c4 <vfprintf+0x30a>
    269a:	f7 01       	movw	r30, r14
    269c:	86 81       	ldd	r24, Z+6	; 0x06
    269e:	97 81       	ldd	r25, Z+7	; 0x07
    26a0:	2b 96       	adiw	r28, 0x0b	; 11
    26a2:	e2 e1       	ldi	r30, 0x12	; 18
    26a4:	0c 94 77 14 	jmp	0x28ee	; 0x28ee <__epilogue_restores__>
    26a8:	80 37       	cpi	r24, 0x70	; 112
    26aa:	49 f0       	breq	.+18     	; 0x26be <vfprintf+0x304>
    26ac:	88 37       	cpi	r24, 0x78	; 120
    26ae:	a9 f7       	brne	.-22     	; 0x269a <vfprintf+0x2e0>
    26b0:	d4 fe       	sbrs	r13, 4
    26b2:	02 c0       	rjmp	.+4      	; 0x26b8 <vfprintf+0x2fe>
    26b4:	68 94       	set
    26b6:	d2 f8       	bld	r13, 2
    26b8:	20 e1       	ldi	r18, 0x10	; 16
    26ba:	30 e0       	ldi	r19, 0x00	; 0
    26bc:	0d c0       	rjmp	.+26     	; 0x26d8 <vfprintf+0x31e>
    26be:	68 94       	set
    26c0:	d4 f8       	bld	r13, 4
    26c2:	f6 cf       	rjmp	.-20     	; 0x26b0 <vfprintf+0x2f6>
    26c4:	34 fe       	sbrs	r3, 4
    26c6:	03 c0       	rjmp	.+6      	; 0x26ce <vfprintf+0x314>
    26c8:	82 2f       	mov	r24, r18
    26ca:	86 60       	ori	r24, 0x06	; 6
    26cc:	d8 2e       	mov	r13, r24
    26ce:	20 e1       	ldi	r18, 0x10	; 16
    26d0:	32 e0       	ldi	r19, 0x02	; 2
    26d2:	02 c0       	rjmp	.+4      	; 0x26d8 <vfprintf+0x31e>
    26d4:	28 e0       	ldi	r18, 0x08	; 8
    26d6:	30 e0       	ldi	r19, 0x00	; 0
    26d8:	f8 01       	movw	r30, r16
    26da:	d7 fe       	sbrs	r13, 7
    26dc:	0f c0       	rjmp	.+30     	; 0x26fc <vfprintf+0x342>
    26de:	60 81       	ld	r22, Z
    26e0:	71 81       	ldd	r23, Z+1	; 0x01
    26e2:	82 81       	ldd	r24, Z+2	; 0x02
    26e4:	93 81       	ldd	r25, Z+3	; 0x03
    26e6:	0c 5f       	subi	r16, 0xFC	; 252
    26e8:	1f 4f       	sbci	r17, 0xFF	; 255
    26ea:	a5 01       	movw	r20, r10
    26ec:	0e 94 fd 13 	call	0x27fa	; 0x27fa <__ultoa_invert>
    26f0:	c8 2e       	mov	r12, r24
    26f2:	ca 18       	sub	r12, r10
    26f4:	3d 2c       	mov	r3, r13
    26f6:	e8 94       	clt
    26f8:	37 f8       	bld	r3, 7
    26fa:	67 cf       	rjmp	.-306    	; 0x25ca <vfprintf+0x210>
    26fc:	60 81       	ld	r22, Z
    26fe:	71 81       	ldd	r23, Z+1	; 0x01
    2700:	90 e0       	ldi	r25, 0x00	; 0
    2702:	80 e0       	ldi	r24, 0x00	; 0
    2704:	0e 5f       	subi	r16, 0xFE	; 254
    2706:	1f 4f       	sbci	r17, 0xFF	; 255
    2708:	f0 cf       	rjmp	.-32     	; 0x26ea <vfprintf+0x330>
    270a:	42 fc       	sbrc	r4, 2
    270c:	02 c0       	rjmp	.+4      	; 0x2712 <vfprintf+0x358>
    270e:	83 94       	inc	r8
    2710:	78 cf       	rjmp	.-272    	; 0x2602 <vfprintf+0x248>
    2712:	83 94       	inc	r8
    2714:	83 94       	inc	r8
    2716:	75 cf       	rjmp	.-278    	; 0x2602 <vfprintf+0x248>
    2718:	84 2d       	mov	r24, r4
    271a:	86 78       	andi	r24, 0x86	; 134
    271c:	09 f4       	brne	.+2      	; 0x2720 <vfprintf+0x366>
    271e:	71 cf       	rjmp	.-286    	; 0x2602 <vfprintf+0x248>
    2720:	f6 cf       	rjmp	.-20     	; 0x270e <vfprintf+0x354>
    2722:	b7 01       	movw	r22, r14
    2724:	80 e2       	ldi	r24, 0x20	; 32
    2726:	90 e0       	ldi	r25, 0x00	; 0
    2728:	0e 94 cd 13 	call	0x279a	; 0x279a <fputc>
    272c:	83 94       	inc	r8
    272e:	82 14       	cp	r8, r2
    2730:	c0 f3       	brcs	.-16     	; 0x2722 <vfprintf+0x368>
    2732:	51 2c       	mov	r5, r1
    2734:	73 cf       	rjmp	.-282    	; 0x261c <vfprintf+0x262>
    2736:	52 2c       	mov	r5, r2
    2738:	58 18       	sub	r5, r8
    273a:	82 14       	cp	r8, r2
    273c:	08 f4       	brcc	.+2      	; 0x2740 <vfprintf+0x386>
    273e:	6e cf       	rjmp	.-292    	; 0x261c <vfprintf+0x262>
    2740:	f8 cf       	rjmp	.-16     	; 0x2732 <vfprintf+0x378>
    2742:	84 2d       	mov	r24, r4
    2744:	86 78       	andi	r24, 0x86	; 134
    2746:	09 f4       	brne	.+2      	; 0x274a <vfprintf+0x390>
    2748:	7b cf       	rjmp	.-266    	; 0x2640 <vfprintf+0x286>
    274a:	8b e2       	ldi	r24, 0x2B	; 43
    274c:	41 fe       	sbrs	r4, 1
    274e:	80 e2       	ldi	r24, 0x20	; 32
    2750:	47 fc       	sbrc	r4, 7
    2752:	8d e2       	ldi	r24, 0x2D	; 45
    2754:	b7 01       	movw	r22, r14
    2756:	90 e0       	ldi	r25, 0x00	; 0
    2758:	71 cf       	rjmp	.-286    	; 0x263c <vfprintf+0x282>
    275a:	b7 01       	movw	r22, r14
    275c:	80 e3       	ldi	r24, 0x30	; 48
    275e:	90 e0       	ldi	r25, 0x00	; 0
    2760:	0e 94 cd 13 	call	0x279a	; 0x279a <fputc>
    2764:	9a 94       	dec	r9
    2766:	6c cf       	rjmp	.-296    	; 0x2640 <vfprintf+0x286>
    2768:	8f ef       	ldi	r24, 0xFF	; 255
    276a:	9f ef       	ldi	r25, 0xFF	; 255
    276c:	99 cf       	rjmp	.-206    	; 0x26a0 <vfprintf+0x2e6>

0000276e <strnlen_P>:
    276e:	fc 01       	movw	r30, r24
    2770:	05 90       	lpm	r0, Z+
    2772:	61 50       	subi	r22, 0x01	; 1
    2774:	70 40       	sbci	r23, 0x00	; 0
    2776:	01 10       	cpse	r0, r1
    2778:	d8 f7       	brcc	.-10     	; 0x2770 <strnlen_P+0x2>
    277a:	80 95       	com	r24
    277c:	90 95       	com	r25
    277e:	8e 0f       	add	r24, r30
    2780:	9f 1f       	adc	r25, r31
    2782:	08 95       	ret

00002784 <strnlen>:
    2784:	fc 01       	movw	r30, r24
    2786:	61 50       	subi	r22, 0x01	; 1
    2788:	70 40       	sbci	r23, 0x00	; 0
    278a:	01 90       	ld	r0, Z+
    278c:	01 10       	cpse	r0, r1
    278e:	d8 f7       	brcc	.-10     	; 0x2786 <strnlen+0x2>
    2790:	80 95       	com	r24
    2792:	90 95       	com	r25
    2794:	8e 0f       	add	r24, r30
    2796:	9f 1f       	adc	r25, r31
    2798:	08 95       	ret

0000279a <fputc>:
    279a:	0f 93       	push	r16
    279c:	1f 93       	push	r17
    279e:	cf 93       	push	r28
    27a0:	df 93       	push	r29
    27a2:	18 2f       	mov	r17, r24
    27a4:	09 2f       	mov	r16, r25
    27a6:	eb 01       	movw	r28, r22
    27a8:	8b 81       	ldd	r24, Y+3	; 0x03
    27aa:	81 fd       	sbrc	r24, 1
    27ac:	09 c0       	rjmp	.+18     	; 0x27c0 <fputc+0x26>
    27ae:	1f ef       	ldi	r17, 0xFF	; 255
    27b0:	0f ef       	ldi	r16, 0xFF	; 255
    27b2:	81 2f       	mov	r24, r17
    27b4:	90 2f       	mov	r25, r16
    27b6:	df 91       	pop	r29
    27b8:	cf 91       	pop	r28
    27ba:	1f 91       	pop	r17
    27bc:	0f 91       	pop	r16
    27be:	08 95       	ret
    27c0:	82 ff       	sbrs	r24, 2
    27c2:	14 c0       	rjmp	.+40     	; 0x27ec <fputc+0x52>
    27c4:	2e 81       	ldd	r18, Y+6	; 0x06
    27c6:	3f 81       	ldd	r19, Y+7	; 0x07
    27c8:	8c 81       	ldd	r24, Y+4	; 0x04
    27ca:	9d 81       	ldd	r25, Y+5	; 0x05
    27cc:	28 17       	cp	r18, r24
    27ce:	39 07       	cpc	r19, r25
    27d0:	3c f4       	brge	.+14     	; 0x27e0 <fputc+0x46>
    27d2:	e8 81       	ld	r30, Y
    27d4:	f9 81       	ldd	r31, Y+1	; 0x01
    27d6:	cf 01       	movw	r24, r30
    27d8:	01 96       	adiw	r24, 0x01	; 1
    27da:	99 83       	std	Y+1, r25	; 0x01
    27dc:	88 83       	st	Y, r24
    27de:	10 83       	st	Z, r17
    27e0:	8e 81       	ldd	r24, Y+6	; 0x06
    27e2:	9f 81       	ldd	r25, Y+7	; 0x07
    27e4:	01 96       	adiw	r24, 0x01	; 1
    27e6:	9f 83       	std	Y+7, r25	; 0x07
    27e8:	8e 83       	std	Y+6, r24	; 0x06
    27ea:	e3 cf       	rjmp	.-58     	; 0x27b2 <fputc+0x18>
    27ec:	e8 85       	ldd	r30, Y+8	; 0x08
    27ee:	f9 85       	ldd	r31, Y+9	; 0x09
    27f0:	81 2f       	mov	r24, r17
    27f2:	09 95       	icall
    27f4:	89 2b       	or	r24, r25
    27f6:	a1 f3       	breq	.-24     	; 0x27e0 <fputc+0x46>
    27f8:	da cf       	rjmp	.-76     	; 0x27ae <fputc+0x14>

000027fa <__ultoa_invert>:
    27fa:	fa 01       	movw	r30, r20
    27fc:	aa 27       	eor	r26, r26
    27fe:	28 30       	cpi	r18, 0x08	; 8
    2800:	51 f1       	breq	.+84     	; 0x2856 <__ultoa_invert+0x5c>
    2802:	20 31       	cpi	r18, 0x10	; 16
    2804:	81 f1       	breq	.+96     	; 0x2866 <__ultoa_invert+0x6c>
    2806:	e8 94       	clt
    2808:	6f 93       	push	r22
    280a:	6e 7f       	andi	r22, 0xFE	; 254
    280c:	6e 5f       	subi	r22, 0xFE	; 254
    280e:	7f 4f       	sbci	r23, 0xFF	; 255
    2810:	8f 4f       	sbci	r24, 0xFF	; 255
    2812:	9f 4f       	sbci	r25, 0xFF	; 255
    2814:	af 4f       	sbci	r26, 0xFF	; 255
    2816:	b1 e0       	ldi	r27, 0x01	; 1
    2818:	3e d0       	rcall	.+124    	; 0x2896 <__ultoa_invert+0x9c>
    281a:	b4 e0       	ldi	r27, 0x04	; 4
    281c:	3c d0       	rcall	.+120    	; 0x2896 <__ultoa_invert+0x9c>
    281e:	67 0f       	add	r22, r23
    2820:	78 1f       	adc	r23, r24
    2822:	89 1f       	adc	r24, r25
    2824:	9a 1f       	adc	r25, r26
    2826:	a1 1d       	adc	r26, r1
    2828:	68 0f       	add	r22, r24
    282a:	79 1f       	adc	r23, r25
    282c:	8a 1f       	adc	r24, r26
    282e:	91 1d       	adc	r25, r1
    2830:	a1 1d       	adc	r26, r1
    2832:	6a 0f       	add	r22, r26
    2834:	71 1d       	adc	r23, r1
    2836:	81 1d       	adc	r24, r1
    2838:	91 1d       	adc	r25, r1
    283a:	a1 1d       	adc	r26, r1
    283c:	20 d0       	rcall	.+64     	; 0x287e <__ultoa_invert+0x84>
    283e:	09 f4       	brne	.+2      	; 0x2842 <__ultoa_invert+0x48>
    2840:	68 94       	set
    2842:	3f 91       	pop	r19
    2844:	2a e0       	ldi	r18, 0x0A	; 10
    2846:	26 9f       	mul	r18, r22
    2848:	11 24       	eor	r1, r1
    284a:	30 19       	sub	r19, r0
    284c:	30 5d       	subi	r19, 0xD0	; 208
    284e:	31 93       	st	Z+, r19
    2850:	de f6       	brtc	.-74     	; 0x2808 <__ultoa_invert+0xe>
    2852:	cf 01       	movw	r24, r30
    2854:	08 95       	ret
    2856:	46 2f       	mov	r20, r22
    2858:	47 70       	andi	r20, 0x07	; 7
    285a:	40 5d       	subi	r20, 0xD0	; 208
    285c:	41 93       	st	Z+, r20
    285e:	b3 e0       	ldi	r27, 0x03	; 3
    2860:	0f d0       	rcall	.+30     	; 0x2880 <__ultoa_invert+0x86>
    2862:	c9 f7       	brne	.-14     	; 0x2856 <__ultoa_invert+0x5c>
    2864:	f6 cf       	rjmp	.-20     	; 0x2852 <__ultoa_invert+0x58>
    2866:	46 2f       	mov	r20, r22
    2868:	4f 70       	andi	r20, 0x0F	; 15
    286a:	40 5d       	subi	r20, 0xD0	; 208
    286c:	4a 33       	cpi	r20, 0x3A	; 58
    286e:	18 f0       	brcs	.+6      	; 0x2876 <__ultoa_invert+0x7c>
    2870:	49 5d       	subi	r20, 0xD9	; 217
    2872:	31 fd       	sbrc	r19, 1
    2874:	40 52       	subi	r20, 0x20	; 32
    2876:	41 93       	st	Z+, r20
    2878:	02 d0       	rcall	.+4      	; 0x287e <__ultoa_invert+0x84>
    287a:	a9 f7       	brne	.-22     	; 0x2866 <__ultoa_invert+0x6c>
    287c:	ea cf       	rjmp	.-44     	; 0x2852 <__ultoa_invert+0x58>
    287e:	b4 e0       	ldi	r27, 0x04	; 4
    2880:	a6 95       	lsr	r26
    2882:	97 95       	ror	r25
    2884:	87 95       	ror	r24
    2886:	77 95       	ror	r23
    2888:	67 95       	ror	r22
    288a:	ba 95       	dec	r27
    288c:	c9 f7       	brne	.-14     	; 0x2880 <__ultoa_invert+0x86>
    288e:	00 97       	sbiw	r24, 0x00	; 0
    2890:	61 05       	cpc	r22, r1
    2892:	71 05       	cpc	r23, r1
    2894:	08 95       	ret
    2896:	9b 01       	movw	r18, r22
    2898:	ac 01       	movw	r20, r24
    289a:	0a 2e       	mov	r0, r26
    289c:	06 94       	lsr	r0
    289e:	57 95       	ror	r21
    28a0:	47 95       	ror	r20
    28a2:	37 95       	ror	r19
    28a4:	27 95       	ror	r18
    28a6:	ba 95       	dec	r27
    28a8:	c9 f7       	brne	.-14     	; 0x289c <__ultoa_invert+0xa2>
    28aa:	62 0f       	add	r22, r18
    28ac:	73 1f       	adc	r23, r19
    28ae:	84 1f       	adc	r24, r20
    28b0:	95 1f       	adc	r25, r21
    28b2:	a0 1d       	adc	r26, r0
    28b4:	08 95       	ret

000028b6 <__prologue_saves__>:
    28b6:	2f 92       	push	r2
    28b8:	3f 92       	push	r3
    28ba:	4f 92       	push	r4
    28bc:	5f 92       	push	r5
    28be:	6f 92       	push	r6
    28c0:	7f 92       	push	r7
    28c2:	8f 92       	push	r8
    28c4:	9f 92       	push	r9
    28c6:	af 92       	push	r10
    28c8:	bf 92       	push	r11
    28ca:	cf 92       	push	r12
    28cc:	df 92       	push	r13
    28ce:	ef 92       	push	r14
    28d0:	ff 92       	push	r15
    28d2:	0f 93       	push	r16
    28d4:	1f 93       	push	r17
    28d6:	cf 93       	push	r28
    28d8:	df 93       	push	r29
    28da:	cd b7       	in	r28, 0x3d	; 61
    28dc:	de b7       	in	r29, 0x3e	; 62
    28de:	ca 1b       	sub	r28, r26
    28e0:	db 0b       	sbc	r29, r27
    28e2:	0f b6       	in	r0, 0x3f	; 63
    28e4:	f8 94       	cli
    28e6:	de bf       	out	0x3e, r29	; 62
    28e8:	0f be       	out	0x3f, r0	; 63
    28ea:	cd bf       	out	0x3d, r28	; 61
    28ec:	09 94       	ijmp

000028ee <__epilogue_restores__>:
    28ee:	2a 88       	ldd	r2, Y+18	; 0x12
    28f0:	39 88       	ldd	r3, Y+17	; 0x11
    28f2:	48 88       	ldd	r4, Y+16	; 0x10
    28f4:	5f 84       	ldd	r5, Y+15	; 0x0f
    28f6:	6e 84       	ldd	r6, Y+14	; 0x0e
    28f8:	7d 84       	ldd	r7, Y+13	; 0x0d
    28fa:	8c 84       	ldd	r8, Y+12	; 0x0c
    28fc:	9b 84       	ldd	r9, Y+11	; 0x0b
    28fe:	aa 84       	ldd	r10, Y+10	; 0x0a
    2900:	b9 84       	ldd	r11, Y+9	; 0x09
    2902:	c8 84       	ldd	r12, Y+8	; 0x08
    2904:	df 80       	ldd	r13, Y+7	; 0x07
    2906:	ee 80       	ldd	r14, Y+6	; 0x06
    2908:	fd 80       	ldd	r15, Y+5	; 0x05
    290a:	0c 81       	ldd	r16, Y+4	; 0x04
    290c:	1b 81       	ldd	r17, Y+3	; 0x03
    290e:	aa 81       	ldd	r26, Y+2	; 0x02
    2910:	b9 81       	ldd	r27, Y+1	; 0x01
    2912:	ce 0f       	add	r28, r30
    2914:	d1 1d       	adc	r29, r1
    2916:	0f b6       	in	r0, 0x3f	; 63
    2918:	f8 94       	cli
    291a:	de bf       	out	0x3e, r29	; 62
    291c:	0f be       	out	0x3f, r0	; 63
    291e:	cd bf       	out	0x3d, r28	; 61
    2920:	ed 01       	movw	r28, r26
    2922:	08 95       	ret

00002924 <_exit>:
    2924:	f8 94       	cli

00002926 <__stop_program>:
    2926:	ff cf       	rjmp	.-2      	; 0x2926 <__stop_program>
